LIBRARY "SporeModAPI.dll"
EXPORTS
    ?ActivateArmorBoost@cScenarioPowerup_addresses@Simulator@@3IB=_ZN9Simulator26cScenarioPowerup_addresses18ActivateArmorBoostE
    ?ActivateDamageBoost@cScenarioPowerup_addresses@Simulator@@3IB=_ZN9Simulator26cScenarioPowerup_addresses19ActivateDamageBoostE
    ?ActivateEnergyKit@cScenarioPowerup_addresses@Simulator@@3IB=_ZN9Simulator26cScenarioPowerup_addresses17ActivateEnergyKitE
    ?ActivateGate@cScenarioPowerup_addresses@Simulator@@3IB=_ZN9Simulator26cScenarioPowerup_addresses12ActivateGateE
    ?ActivateGrenade@cScenarioPowerup_addresses@Simulator@@3IB=_ZN9Simulator26cScenarioPowerup_addresses15ActivateGrenadeE
    ?ActivateJumpPad@cScenarioPowerup_addresses@Simulator@@3IB=_ZN9Simulator26cScenarioPowerup_addresses15ActivateJumpPadE
    ?ActivateMedKit@cScenarioPowerup_addresses@Simulator@@3IB=_ZN9Simulator26cScenarioPowerup_addresses14ActivateMedKitE
    ?ActivateMine@cScenarioPowerup_addresses@Simulator@@3IB=_ZN9Simulator26cScenarioPowerup_addresses12ActivateMineE
    ?ActivateSpeedBoost@cScenarioPowerup_addresses@Simulator@@3IB=_ZN9Simulator26cScenarioPowerup_addresses18ActivateSpeedBoostE
    ?ActivateTeleporter@cScenarioPowerup_addresses@Simulator@@3IB=_ZN9Simulator26cScenarioPowerup_addresses18ActivateTeleporterE
    ?ActivateTool@cToolManager_addresses@Simulator@@3IB=_ZN9Simulator22cToolManager_addresses12ActivateToolE
    ?AddAllPropertiesFrom@DirectPropertyList_addresses@App@@3IB=_ZN3App28DirectPropertyList_addresses20AddAllPropertiesFromE
    ?AddAllPropertiesFrom@PropertyList_addresses@App@@3IB=_ZN3App22PropertyList_addresses20AddAllPropertiesFromE
    ?AddAmmo@cSpaceToolData_addresses@Simulator@@3IB=_ZN9Simulator24cSpaceToolData_addresses7AddAmmoE
    ?AddBlock@FormatParser_addresses@ArgScript@@3IB=_ZN9ArgScript22FormatParser_addresses8AddBlockE
    ?AddBuilding@cCity_addresses@Simulator@@3IB=_ZN9Simulator15cCity_addresses11AddBuildingE
    ?AddCameraType@cCameraManager_addresses@App@@3IB=_ZN3App24cCameraManager_addresses13AddCameraTypeE
    ?AddCheat@cCheatManager_addresses@App@@3IB=_ZN3App23cCheatManager_addresses8AddCheatE
    ?AddCreature@cEditor_addresses@Editors@@3IB=_ZN7Editors17cEditor_addresses11AddCreatureE
    ?AddDBPF@cResourceManager_addresses@Resource@@3IB=_ZN8Resource26cResourceManager_addresses7AddDBPFE
    ?AddDependency@cJob_addresses@App@@3IB=_ZN3App14cJob_addresses13AddDependencyE
    ?AddDisposeFunction@ModAPI@@YAXP6AXXZ@Z=_ZN6ModAPI18AddDisposeFunctionEPFvvE
    ?AddEntry@cMessageManager_addresses@App@@3IB=_ZN3App25cMessageManager_addresses8AddEntryE
    ?AddEvolutionPoints@cCreatureGameData_addresses@Simulator@@3IB=_ZN9Simulator27cCreatureGameData_addresses18AddEvolutionPointsE
    ?AddExtensionMapping@DatabaseDirectoryFiles_addresses@Resource@@3IB=_ZN8Resource32DatabaseDirectoryFiles_addresses19AddExtensionMappingE
    ?AddExtensionMapping@cResourceManager_addresses@Resource@@3IB=_ZN8Resource26cResourceManager_addresses19AddExtensionMappingE
    ?AddFileName@cResourceManager_addresses@Resource@@3IB=_ZN8Resource26cResourceManager_addresses11AddFileNameE
    ?AddFunction@Lexer_addresses@ArgScript@@3IB=_ZN9ArgScript15Lexer_addresses11AddFunctionE
    ?AddGameMode@cGameModeManager_addresses@App@@3IB=_ZN3App26cGameModeManager_addresses11AddGameModeE
    ?AddHandler@cMessageManager_addresses@App@@3IB=_ZN3App25cMessageManager_addresses10AddHandlerE
    ?AddImageWindow@IImageDrawable_addresses@UTFWin@@3IB=_ZN6UTFWin24IImageDrawable_addresses14AddImageWindowE
    ?AddInitFunction@ModAPI@@YAXP6AXXZ@Z=_ZN6ModAPI15AddInitFunctionEPFvvE
    ?AddListener@cMessageManager_addresses@App@@3IB=_ZN3App25cMessageManager_addresses11AddListenerE
    ?AddParser@FormatParser_addresses@ArgScript@@3IB=_ZN9ArgScript22FormatParser_addresses9AddParserE
    ?AddParser@IBlock_addresses@ArgScript@@3IB=_ZN9ArgScript16IBlock_addresses9AddParserE
    ?AddPostInitFunction@ModAPI@@YAXP6AXXZ@Z=_ZN6ModAPI19AddPostInitFunctionEPFvvE
    ?AddPreloadedEffect@cCellGFX_addresses@Cell@Simulator@@3IB=_ZN9Simulator4Cell18cCellGFX_addresses18AddPreloadedEffectE
    ?AddPreloadedModel2@cCellGFX_addresses@Cell@Simulator@@3IB=_ZN9Simulator4Cell18cCellGFX_addresses18AddPreloadedModel2E
    ?AddPreloadedModel@cCellGFX_addresses@Cell@Simulator@@3IB=_ZN9Simulator4Cell18cCellGFX_addresses17AddPreloadedModelE
    ?AddPreloadedTexture@cCellGFX_addresses@Cell@Simulator@@3IB=_ZN9Simulator4Cell18cCellGFX_addresses19AddPreloadedTextureE
    ?AddProgress@cAchievementsManager_addresses@Pollinator@@3IB=_ZN10Pollinator30cAchievementsManager_addresses11AddProgressE
    ?AddPropertiesFrom@DirectPropertyList_addresses@App@@3IB=_ZN3App28DirectPropertyList_addresses17AddPropertiesFromE
    ?AddPropertiesFrom@PropertyList_addresses@App@@3IB=_ZN3App22PropertyList_addresses17AddPropertiesFromE
    ?AddPropertyList@cPropManager_addresses@App@@3IB=_ZN3App22cPropManager_addresses15AddPropertyListE
    ?AddRef@EditorCamera_addresses@Editors@@3IB=_ZN7Editors22EditorCamera_addresses6AddRefE
    ?AddRef@FileStream_addresses@IO@@3IB=_ZN2IO20FileStream_addresses6AddRefE
    ?AddRef@FixedMemoryStream_addresses@IO@@3IB=_ZN2IO27FixedMemoryStream_addresses6AddRefE
    ?AddRef@FormatParser_addresses@ArgScript@@3IB=_ZN9ArgScript22FormatParser_addresses6AddRefE
    ?AddRef@MemoryStream_addresses@IO@@3IB=_ZN2IO22MemoryStream_addresses6AddRefE
    ?AddRef@StreamBuffer_addresses@IO@@3IB=_ZN2IO22StreamBuffer_addresses6AddRefE
    ?AddRef@StreamChild_addresses@IO@@3IB=_ZN2IO21StreamChild_addresses6AddRefE
    ?AddRef@StreamNull_addresses@IO@@3IB=_ZN2IO20StreamNull_addresses6AddRefE
    ?AddRef@cCameraManager_addresses@App@@3IB=_ZN3App24cCameraManager_addresses6AddRefE
    ?AddRef@cCellModeStrategy_addresses@App@@3IB=_ZN3App27cCellModeStrategy_addresses6AddRefE
    ?AddRef@cGameModeManager_addresses@App@@3IB=_ZN3App26cGameModeManager_addresses6AddRefE
    ?AddRef@cJob_addresses@App@@3IB=_ZN3App14cJob_addresses6AddRefE
    ?AddRef@cPropManager_addresses@App@@3IB=_ZN3App22cPropManager_addresses6AddRefE
    ?AddSimulatorStrategy@ModAPI@@YA_NPAVISimulatorStrategy@Simulator@@I@Z=_ZN6ModAPI20AddSimulatorStrategyEPN9Simulator18ISimulatorStrategyEj
    ?AddSpecialBlock@FormatParser_addresses@ArgScript@@3IB=_ZN9ArgScript22FormatParser_addresses15AddSpecialBlockE
    ?AddToBadgeProgress@cBadgeManager_addresses@Simulator@@3IB=_ZN9Simulator23cBadgeManager_addresses18AddToBadgeProgressE
    ?AddTooltip@ColorSwatchUI_addresses@Palettes@@3IB=_ZN8Palettes23ColorSwatchUI_addresses10AddTooltipE
    ?AddUnlockableItem@cCollectableItems_addresses@Simulator@@3IB=_ZN9Simulator27cCollectableItems_addresses17AddUnlockableItemE
    ?AddUnlockableItemFromProp@cCollectableItems_addresses@Simulator@@3IB=_ZN9Simulator27cCollectableItems_addresses25AddUnlockableItemFromPropE
    ?AddUnmanagedListener@cMessageManager_addresses@App@@3IB=_ZN3App25cMessageManager_addresses20AddUnmanagedListenerE
    ?AddViewer@cSwatchManager_addresses@Palettes@@3IB=_ZN8Palettes24cSwatchManager_addresses9AddViewerE
    ?AddWalkAction@PlayModeActor_addresses@Editors@@3IB=_ZN7Editors23PlayModeActor_addresses13AddWalkActionE
    ?AddWeakDependency@cJob_addresses@App@@3IB=_ZN3App14cJob_addresses17AddWeakDependencyE
    ?AddWinProc@Window_addresses@UTFWin@@3IB=_ZN6UTFWin16Window_addresses10AddWinProcE
    ?AddWindow@Window_addresses@UTFWin@@3IB=_ZN6UTFWin16Window_addresses9AddWindowE
    ?AfterGlideFinish@cCreatureGameData_addresses@Simulator@@3IB=_ZN9Simulator27cCreatureGameData_addresses16AfterGlideFinishE
    ?Alloc@FixedPoolAllocator_addresses@@3IB=_ZN28FixedPoolAllocator_addresses5AllocE
    ?Alloc_@FixedPoolAllocator_addresses@@3IB=_ZN28FixedPoolAllocator_addresses6Alloc_E
    ?Allocator_ptr@Internal_addresses@@3IB=_ZN18Internal_addresses13Allocator_ptrE
    ?AppProperties_ptr@App_addresses@@3IB=_ZN13App_addresses17AppProperties_ptrE
    ?AppendAttribute@XmlWriter_addresses@IO@@3IB=_ZN2IO19XmlWriter_addresses15AppendAttributeE
    ?AppendAttributeF@XmlWriter_addresses@IO@@3IB=_ZN2IO19XmlWriter_addresses16AppendAttributeFE
    ?ApplyLayout@ProportionalLayout_addresses@UTFWin@@3IB=_ZN6UTFWin28ProportionalLayout_addresses11ApplyLayoutE
    ?ApplyLayout@SimpleLayout_addresses@UTFWin@@3IB=_ZN6UTFWin22SimpleLayout_addresses11ApplyLayoutE
    ?ApplyRelationship@cRelationshipManager_addresses@Simulator@@3IB=_ZN9Simulator30cRelationshipManager_addresses17ApplyRelationshipE
    ?ApplyTransform@BoundingBox_addresses@Math@@3IB=_ZN4Math21BoundingBox_addresses14ApplyTransformE
    ?AreAnyPropertyListsReferenced@cPropManager_addresses@App@@3IB=_ZN3App22cPropManager_addresses29AreAnyPropertyListsReferencedE
    ?AssignNames@cIdentityColorable_addresses@Simulator@@3IB=_ZN9Simulator28cIdentityColorable_addresses11AssignNamesE
    ?AssignPlanetSpice@cSpaceTrading_addresses@Simulator@@3IB=_ZN9Simulator23cSpaceTrading_addresses17AssignPlanetSpiceE
    ?AsyncAccess@cPropManager_addresses@App@@3IB=_ZN3App22cPropManager_addresses11AsyncAccessE
    ?AsyncSetKey@cSPAssetDataOTDB_addresses@Sporepedia@@3IB=_ZN10Sporepedia26cSPAssetDataOTDB_addresses11AsyncSetKeyE
    ?Attach@DatabaseDirectoryFiles_addresses@Resource@@3IB=_ZN8Resource32DatabaseDirectoryFiles_addresses6AttachE
    ?Attach@DatabasePackedFile_addresses@Resource@@3IB=_ZN8Resource28DatabasePackedFile_addresses6AttachE
    ?AttributesToXml@XmlSerializer_addresses@Simulator@@3IB=_ZN9Simulator23XmlSerializer_addresses15AttributesToXmlE
    ?AvatarTickAI@cCreatureAnimal_addresses@Simulator@@3IB=_ZN9Simulator25cCreatureAnimal_addresses12AvatarTickAIE
    ?BeginElement@XmlWriter_addresses@IO@@3IB=_ZN2IO19XmlWriter_addresses12BeginElementE
    ?BeginProcessingInstruction@XmlWriter_addresses@IO@@3IB=_ZN2IO19XmlWriter_addresses26BeginProcessingInstructionE
    ?BeginUpdate@cViewer_addresses@App@@3IB=_ZN3App17cViewer_addresses11BeginUpdateE
    ?BoostBackgroundJobs@cAppSystem_addresses@App@@3IB=_ZN3App20cAppSystem_addresses19BoostBackgroundJobsE
    ?BreakAlliance@cRelationshipManager_addresses@Simulator@@3IB=_ZN9Simulator30cRelationshipManager_addresses13BreakAllianceE
    ?BringToFront@Window_addresses@UTFWin@@3IB=_ZN6UTFWin16Window_addresses12BringToFrontE
    ?CacheResource@cResourceManager_addresses@Resource@@3IB=_ZN8Resource26cResourceManager_addresses13CacheResourceE
    ?CalculateAvatarNormalizingScale@cCreatureGameData_addresses@Simulator@@3IB=_ZN9Simulator27cCreatureGameData_addresses31CalculateAvatarNormalizingScaleE
    ?CalculatePlanetScores@cStarManager_addresses@Simulator@@3IB=_ZN9Simulator22cStarManager_addresses21CalculatePlanetScoresE
    ?CalculateTScore@cTerraformingManager_addresses@Simulator@@3IB=_ZN9Simulator30cTerraformingManager_addresses15CalculateTScoreE
    ?CalculateTriangleCount@Mesh_addresses@RenderWare@@3IB=_ZN10RenderWare14Mesh_addresses22CalculateTriangleCountE
    ?CalculateViewTransform@cMouseCamera_addresses@App@@3IB=_ZN3App22cMouseCamera_addresses22CalculateViewTransformE
    ?CanConvert@cPropManager_addresses@App@@3IB=_ZN3App22cPropManager_addresses10CanConvertE
    ?Cancel@cJob_addresses@App@@3IB=_ZN3App14cJob_addresses6CancelE
    ?CaptureSystem@cEmpire_addresses@Simulator@@3IB=_ZN9Simulator17cEmpire_addresses13CaptureSystemE
    ?Cast@EditorCamera_addresses@Editors@@3IB=_ZN7Editors22EditorCamera_addresses4CastE
    ?Cast@ProportionalLayout_addresses@UTFWin@@3IB=_ZN6UTFWin28ProportionalLayout_addresses4CastE
    ?Cast@SimpleLayout_addresses@UTFWin@@3IB=_ZN6UTFWin22SimpleLayout_addresses4CastE
    ?ChangeEnergy@cGameDataUFO_addresses@Simulator@@3IB=_ZN9Simulator22cGameDataUFO_addresses12ChangeEnergyE
    ?CheckFilesInRange@PFIndexModifiable_addresses@Resource@@3IB=_ZN8Resource27PFIndexModifiable_addresses17CheckFilesInRangeE
    ?CheckFilesInSizeRange@PFIndexModifiable_addresses@Resource@@3IB=_ZN8Resource27PFIndexModifiable_addresses21CheckFilesInSizeRangeE
    ?ChooseAddress@ModAPI@@YAIII@Z=_ZN6ModAPI13ChooseAddressEjj
    ?ChooseMission@cMissionManager_addresses@Simulator@@3IB=_ZN9Simulator25cMissionManager_addresses13ChooseMissionE
    ?Clear@Canvas_addresses@App@@3IB=_ZN3App16Canvas_addresses5ClearE
    ?Clear@DirectPropertyList_addresses@App@@3IB=_ZN3App28DirectPropertyList_addresses5ClearE
    ?Clear@PropertyList_addresses@App@@3IB=_ZN3App22PropertyList_addresses5ClearE
    ?Clear@Property_addresses@App@@3IB=_ZN3App18Property_addresses5ClearE
    ?Clear@cObjectPool__addresses@Simulator@@3IB=_ZN9Simulator22cObjectPool__addresses5ClearE
    ?Clear@cSkinnerTexturePainter_addresses@Skinner@@3IB=_ZN7Skinner32cSkinnerTexturePainter_addresses5ClearE
    ?ClearActiveMode@cGameModeManager_addresses@App@@3IB=_ZN3App26cGameModeManager_addresses15ClearActiveModeE
    ?ClearNPCStores@cSpaceTrading_addresses@Simulator@@3IB=_ZN9Simulator23cSpaceTrading_addresses14ClearNPCStoresE
    ?ClearScene@cViewer_addresses@App@@3IB=_ZN3App17cViewer_addresses10ClearSceneE
    ?Close@DatabaseDirectoryFiles_addresses@Resource@@3IB=_ZN8Resource32DatabaseDirectoryFiles_addresses11CloseRecordE
    ?Close@DatabasePackedFile_addresses@Resource@@3IB=_ZN8Resource28DatabasePackedFile_addresses11CloseRecordE
    ?Close@FileStream_addresses@IO@@3IB=_ZN2IO20FileStream_addresses5CloseE
    ?Close@FixedMemoryStream_addresses@IO@@3IB=_ZN2IO27FixedMemoryStream_addresses5CloseE
    ?Close@FormatParser_addresses@ArgScript@@3IB=_ZN9ArgScript22FormatParser_addresses5CloseE
    ?Close@MemoryStream_addresses@IO@@3IB=_ZN2IO22MemoryStream_addresses5CloseE
    ?Close@PFRecordRead_addresses@Resource@@3IB=_ZN8Resource22PFRecordRead_addresses5CloseE
    ?Close@PFRecordWrite_addresses@Resource@@3IB=_ZN8Resource23PFRecordWrite_addresses5CloseE
    ?Close@StreamBuffer_addresses@IO@@3IB=_ZN2IO22StreamBuffer_addresses5CloseE
    ?Close@StreamChild_addresses@IO@@3IB=_ZN2IO21StreamChild_addresses5CloseE
    ?Close@StreamNull_addresses@IO@@3IB=_ZN2IO20StreamNull_addresses5CloseE
    ?CloseRecord@DatabaseDirectoryFiles_addresses@Resource@@3IB=_ZN8Resource32DatabaseDirectoryFiles_addresses11CloseRecordE
    ?CloseRecord@DatabasePackedFile_addresses@Resource@@3IB=_ZN8Resource28DatabasePackedFile_addresses11CloseRecordE
    ?CommitEditHistory@cEditor_addresses@Editors@@3IB=_ZN7Editors17cEditor_addresses17CommitEditHistoryE
    ?CommitHistoryEntry@cScenarioData_addresses@Simulator@@3IB=_ZN9Simulator23cScenarioData_addresses18CommitHistoryEntryE
    ?CommitHistoryEntry@cScenarioTerraformMode_addresses@Simulator@@3IB=_ZN9Simulator32cScenarioTerraformMode_addresses18CommitHistoryEntryE
    ?ComputeAll@cArithmeticaResource_addresses@App@@3IB=_ZN3App30cArithmeticaResource_addresses10ComputeAllE
    ?ComputeFunction@cArithmeticaResource_addresses@App@@3IB=_ZN3App30cArithmeticaResource_addresses15ComputeFunctionE
    ?ConcatenatePathComponents@IO_addresses@@3IB=_ZN12IO_addresses25ConcatenatePathComponentsE
    ?Configure@cAppSystem_addresses@App@@3IB=_ZN3App20cAppSystem_addresses9ConfigureE
    ?ConsumeAmmo@cSpaceToolData_addresses@Simulator@@3IB=_ZN9Simulator24cSpaceToolData_addresses11ConsumeAmmoE
    ?ContainsPoint@Window_addresses@UTFWin@@3IB=_ZN6UTFWin16Window_addresses13ContainsPointE
    ?Continuation@cJob_addresses@App@@3IB=_ZN3App14cJob_addresses12ContinuationE
    ?ConvertDeltaTime@cGameTimeManager_addresses@Simulator@@3IB=_ZN9Simulator26cGameTimeManager_addresses16ConvertDeltaTimeE
    ?CopyAllPropertiesFrom@DirectPropertyList_addresses@App@@3IB=_ZN3App28DirectPropertyList_addresses21CopyAllPropertiesFromE
    ?CopyAllPropertiesFrom@PropertyList_addresses@App@@3IB=_ZN3App22PropertyList_addresses21CopyAllPropertiesFromE
    ?CopyFrom@DirectPropertyList_addresses@App@@3IB=_ZN3App28DirectPropertyList_addresses8CopyFromE
    ?CopyFrom@PropertyList_addresses@App@@3IB=_ZN3App22PropertyList_addresses8CopyFromE
    ?Create@Directory_addresses@IO@@3IB=_ZN2IO19Directory_addresses6CreateE
    ?Create@IButton_addresses@UTFWin@@3IB=_ZN6UTFWin17IButton_addresses6CreateE
    ?Create@ITextEdit_addresses@UTFWin@@3IB=_ZN6UTFWin19ITextEdit_addresses6CreateE
    ?Create@Raster_addresses@RenderWare@@3IB=_ZN10RenderWare16Raster_addresses12CreateRasterE
    ?Create@ScrollFrameVertical_addresses@UI@@3IB=_ZN2UI29ScrollFrameVertical_addresses6CreateE
    ?Create@cAppSystem_addresses@App@@3IB=_ZN3App20cAppSystem_addresses6CreateE
    ?Create@cCellDataReference__addresses@Cell@Simulator@@3IB=_ZN9Simulator4Cell29cCellDataReference__addresses6CreateE
    ?Create@cCreatureAnimal_addresses@Simulator@@3IB=_ZN9Simulator25cCreatureAnimal_addresses6CreateE
    ?Create@cHerd_addresses@Simulator@@3IB=_ZN9Simulator15cHerd_addresses6CreateE
    ?Create@cPlanetRecord_addresses@Simulator@@3IB=_ZN9Simulator23cPlanetRecord_addresses6CreateE
    ?Create@cSimulatorSystem_addresses@Simulator@@3IB=_ZN9Simulator26cSimulatorSystem_addresses6CreateE
    ?Create@cTerrainSphere_addresses@Sphere@Terrain@@3IB=_ZN7Terrain6Sphere24cTerrainSphere_addresses6CreateE
    ?Create@cTerrainSphere_addresses@Terrain@@3IB=_ZN7Terrain24cTerrainSphere_addresses10CreateRTTsE
    ?CreateAndStartEffectForPool1@cCreatureBase_addresses@Simulator@@3IB=_ZN9Simulator23cCreatureBase_addresses28CreateAndStartEffectForPool1E
    ?CreateAndStartEffectForPool1Renamed@cCreatureBase_addresses@Simulator@@3IB=_ZN9Simulator23cCreatureBase_addresses35CreateAndStartEffectForPool1RenamedE
    ?CreateAnimalItem@cAnimalSpeciesManager_addresses@Simulator@@3IB=_ZN9Simulator31cAnimalSpeciesManager_addresses16CreateAnimalItemE
    ?CreateCellObject@Cell_addresses@Simulator@@3IB=_ZN9Simulator14Cell_addresses16CreateCellObjectE
    ?CreateCellObject@cCellGame_addresses@Cell@Simulator@@3IB=_ZN9Simulator4Cell19cCellGame_addresses16CreateCellObjectE
    ?CreateCivCommEvent@cCommManager_addresses@Simulator@@3IB=_ZN9Simulator22cCommManager_addresses18CreateCivCommEventE
    ?CreateDefinition@FormatParser_addresses@ArgScript@@3IB=_ZN9ArgScript22FormatParser_addresses16CreateDefinitionE
    ?CreateDefinitionSafe@FormatParser_addresses@ArgScript@@3IB=_ZN9ArgScript22FormatParser_addresses20CreateDefinitionSafeE
    ?CreateDevice@RenderUtils_addresses@Graphics@@3IB=_ZN8Graphics21RenderUtils_addresses12CreateDeviceE
    ?CreateDevice@Renderer_addresses@Graphics@@3IB=_ZN8Graphics18Renderer_addresses12CreateDeviceE
    ?CreateEffect@cCellGFX_addresses@Cell@Simulator@@3IB=_ZN9Simulator4Cell18cCellGFX_addresses12CreateEffectE
    ?CreateEffectForPool1@cCreatureBase_addresses@Simulator@@3IB=_ZN9Simulator23cCreatureBase_addresses20CreateEffectForPool1E
    ?CreateEffectForPool1Renamed@cCreatureBase_addresses@Simulator@@3IB=_ZN9Simulator23cCreatureBase_addresses27CreateEffectForPool1RenamedE
    ?CreateEffectForPool2Renamed@cCreatureBase_addresses@Simulator@@3IB=_ZN9Simulator23cCreatureBase_addresses27CreateEffectForPool2RenamedE
    ?CreateHerd@cGameNounManager_addresses@Simulator@@3IB=_ZN9Simulator26cGameNounManager_addresses10CreateHerdE
    ?CreateIndex@DatabasePackedFile_addresses@Resource@@3IB=_ZN8Resource28DatabasePackedFile_addresses11CreateIndexE
    ?CreateInstance@cGameNounManager_addresses@Simulator@@3IB=_ZN9Simulator26cGameNounManager_addresses14CreateInstanceE
    ?CreateMission@cMissionManager_addresses@Simulator@@3IB=_ZN9Simulator25cMissionManager_addresses13CreateMissionE
    ?CreateMultiDeliveryObject@cSpaceInventoryItem_addresses@Simulator@@3IB=_ZN9Simulator29cSpaceInventoryItem_addresses25CreateMultiDeliveryObjectE
    ?CreateNest@cGameNounManager_addresses@Simulator@@3IB=_ZN9Simulator26cGameNounManager_addresses10CreateNestE
    ?CreateObject@cObjectPool__addresses@Simulator@@3IB=_ZN9Simulator22cObjectPool__addresses12CreateObjectE
    ?CreateObjectInstance@cScenarioData_addresses@Simulator@@3IB=_ZN9Simulator23cScenarioData_addresses20CreateObjectInstanceE
    ?CreatePFIndexModifiable@DatabasePackedFile_addresses@Resource@@3IB=_ZN8Resource28DatabasePackedFile_addresses23CreatePFIndexModifiableE
    ?CreatePFRecordRead@DatabasePackedFile_addresses@Resource@@3IB=_ZN8Resource28DatabasePackedFile_addresses18CreatePFRecordReadE
    ?CreatePFRecordReadCopy@DatabasePackedFile_addresses@Resource@@3IB=_ZN8Resource28DatabasePackedFile_addresses22CreatePFRecordReadCopyE
    ?CreatePFRecordWrite@DatabasePackedFile_addresses@Resource@@3IB=_ZN8Resource28DatabasePackedFile_addresses19CreatePFRecordWriteE
    ?CreatePFRecordWriteData@DatabasePackedFile_addresses@Resource@@3IB=_ZN8Resource28DatabasePackedFile_addresses23CreatePFRecordWriteDataE
    ?CreatePlantItem@cPlantSpeciesManager_addresses@Simulator@@3IB=_ZN9Simulator30cPlantSpeciesManager_addresses15CreatePlantItemE
    ?CreatePowerupObjectInstance@cScenarioData_addresses@Simulator@@3IB=_ZN9Simulator23cScenarioData_addresses27CreatePowerupObjectInstanceE
    ?CreateRTTs@cTerrainSphere_addresses@Terrain@@3IB=_ZN7Terrain24cTerrainSphere_addresses10CreateRTTsE
    ?CreateRaster@Raster_addresses@RenderWare@@3IB=_ZN10RenderWare16Raster_addresses12CreateRasterE
    ?CreateRecordRead@DatabasePackedFile_addresses@Resource@@3IB=_ZN8Resource28DatabasePackedFile_addresses16CreateRecordReadE
    ?CreateRecordReadCopy@DatabasePackedFile_addresses@Resource@@3IB=_ZN8Resource28DatabasePackedFile_addresses20CreateRecordReadCopyE
    ?CreateRecordWrite@DatabasePackedFile_addresses@Resource@@3IB=_ZN8Resource28DatabasePackedFile_addresses17CreateRecordWriteE
    ?CreateRecordWriteData@DatabasePackedFile_addresses@Resource@@3IB=_ZN8Resource28DatabasePackedFile_addresses21CreateRecordWriteDataE
    ?CreateReflectionRTTs@Terrain_addresses@@3IB=_ZN17Terrain_addresses20CreateReflectionRTTsE
    ?CreateRefractionRTTs@Terrain_addresses@@3IB=_ZN17Terrain_addresses20CreateRefractionRTTsE
    ?CreateResource@cPropManager_addresses@App@@3IB=_ZN3App22cPropManager_addresses14CreateResourceE
    ?CreateResourceAsync@cPropManager_addresses@App@@3IB=_ZN3App22cPropManager_addresses19CreateResourceAsyncE
    ?CreateSaveAreaDirectoryDatabase@Paths_addresses@Resource@@3IB=_ZN8Resource15Paths_addresses31CreateSaveAreaDirectoryDatabaseE
    ?CreateScatterRTTs@Terrain_addresses@@3IB=_ZN17Terrain_addresses17CreateScatterRTTsE
    ?CreateSpaceCommEvent@cCommManager_addresses@Simulator@@3IB=_ZN9Simulator22cCommManager_addresses20CreateSpaceCommEventE
    ?CreateStarEffect@cSolarSystem_addresses@Simulator@@3IB=_ZN9Simulator22cSolarSystem_addresses16CreateStarEffectE
    ?CreateStream@ArgScript_addresses@@3IB=_ZN19ArgScript_addresses12CreateStreamE
    ?CreateTempFile@Paths_addresses@Resource@@3IB=_ZN8Resource15Paths_addresses14CreateTempFileE
    ?CreateTextures@cSkinPainter_addresses@Skinner@@3IB=_ZN7Skinner22cSkinPainter_addresses14CreateTexturesE
    ?CreateTradingObject@cSpaceInventoryItem_addresses@Simulator@@3IB=_ZN9Simulator29cSpaceInventoryItem_addresses19CreateTradingObjectE
    ?CreateUFO@Simulator_addresses@@3IB=_ZN19Simulator_addresses9CreateUFOE
    ?CurrentMaterialIndex_ptr@Terrain_addresses@@3IB=_ZN17Terrain_addresses24CurrentMaterialIndex_ptrE
    ?CurrentQuadIndex_ptr@Terrain_addresses@@3IB=_ZN17Terrain_addresses20CurrentQuadIndex_ptrE
    ?D3D9AddToUnmanagedList@Raster_addresses@RenderWare@@3IB=_ZN10RenderWare16Raster_addresses22D3D9AddToUnmanagedListE
    ?D3D9GetStreamedMipLevelSize@Raster_addresses@RenderWare@@3IB=_ZN10RenderWare16Raster_addresses27D3D9GetStreamedMipLevelSizeE
    ?D3D9Sync@GlobalState_addresses@Graphics@@3IB=_ZN8Graphics21GlobalState_addresses8D3D9SyncE
    ?D3D9VertexDescriptorAddToList@VertexDescription_addresses@RenderWare@@3IB=_ZN10RenderWare27VertexDescription_addresses29D3D9VertexDescriptorAddToListE
    ?D3D_ptr@RenderUtils_addresses@Graphics@@3IB=_ZN8Graphics21RenderUtils_addresses7D3D_ptrE
    ?D3D_ptr@Renderer_addresses@Graphics@@3IB=_ZN8Graphics18Renderer_addresses7D3D_ptrE
    ?DeactivateTool@cToolManager_addresses@Simulator@@3IB=_ZN9Simulator22cToolManager_addresses14DeactivateToolE
    ?DeclareAlliance@cRelationshipManager_addresses@Simulator@@3IB=_ZN9Simulator30cRelationshipManager_addresses15DeclareAllianceE
    ?DeclarePeace@cRelationshipManager_addresses@Simulator@@3IB=_ZN9Simulator30cRelationshipManager_addresses12DeclarePeaceE
    ?DeclareWar@cRelationshipManager_addresses@Simulator@@3IB=_ZN9Simulator30cRelationshipManager_addresses10DeclareWarE
    ?Delete@Raster_addresses@RenderWare@@3IB=_ZN10RenderWare16Raster_addresses6DeleteE
    ?Delete@UILayout_addresses@UTFWin@@3IB=_ZN6UTFWin18UILayout_addresses6DeleteE
    ?DeleteObject@cObjectPool__addresses@Simulator@@3IB=_ZN9Simulator22cObjectPool__addresses12DeleteObjectE
    ?DeleteRecord@DatabaseDirectoryFiles_addresses@Resource@@3IB=_ZN8Resource32DatabaseDirectoryFiles_addresses12DeleteRecordE
    ?DeleteRecord@DatabasePackedFile_addresses@Resource@@3IB=_ZN8Resource28DatabasePackedFile_addresses12DeleteRecordE
    ?Demo@cAppSystem_addresses@App@@3IB=_ZN3App20cAppSystem_addresses4DemoE
    ?Destroy@ColorSwatchUI_addresses@Palettes@@3IB=_ZN8Palettes23ColorSwatchUI_addresses7DestroyE
    ?DestroyCity@cSimPlanetHighLOD_addresses@Simulator@@3IB=_ZN9Simulator27cSimPlanetHighLOD_addresses11DestroyCityE
    ?DestroyCreature@cEditorAnimWorld_addresses@Editors@@3IB=_ZN7Editors26cEditorAnimWorld_addresses15DestroyCreatureE
    ?DestroyIndex@DatabasePackedFile_addresses@Resource@@3IB=_ZN8Resource28DatabasePackedFile_addresses12DestroyIndexE
    ?DestroyInstance@cGameNounManager_addresses@Simulator@@3IB=_ZN9Simulator26cGameNounManager_addresses15DestroyInstanceE
    ?Device_ptr@RenderUtils_addresses@Graphics@@3IB=_ZN8Graphics21RenderUtils_addresses10Device_ptrE
    ?Device_ptr@Renderer_addresses@Graphics@@3IB=_ZN8Graphics18Renderer_addresses10Device_ptrE
    ?DisableBackground@PlayModeBackgrounds_addresses@Editors@@3IB=_ZN7Editors29PlayModeBackgrounds_addresses17DisableBackgroundE
    ?Dispatch@GlobalState_addresses@Graphics@@3IB=_ZN8Graphics21GlobalState_addresses8DispatchE
    ?Dispose@DatabaseDirectoryFiles_addresses@Resource@@3IB=_ZN8Resource32DatabaseDirectoryFiles_addresses7DisposeE
    ?Dispose@EditorModel_addresses@Editors@@3IB=_ZN7Editors21EditorModel_addresses7DisposeE
    ?Dispose@EditorNamePanel_addresses@UI@@3IB=_ZN2UI25EditorNamePanel_addresses7DisposeE
    ?Dispose@EditorPlayMode_addresses@Editors@@3IB=_ZN7Editors24EditorPlayMode_addresses7DisposeE
    ?Dispose@FormatParser_addresses@ArgScript@@3IB=_ZN9ArgScript22FormatParser_addresses7DisposeE
    ?Dispose@Window_addresses@UTFWin@@3IB=_ZN6UTFWin16Window_addresses19DisposeWindowFamilyE
    ?Dispose@cCameraManager_addresses@App@@3IB=_ZN3App24cCameraManager_addresses7DisposeE
    ?Dispose@cCellModeStrategy_addresses@App@@3IB=_ZN3App27cCellModeStrategy_addresses7DisposeE
    ?Dispose@cCheatManager_addresses@App@@3IB=_ZN3App23cCheatManager_addresses7DisposeE
    ?Dispose@cEditor_addresses@Editors@@3IB=_ZN7Editors17cEditor_addresses7DisposeE
    ?Dispose@cGameModeManager_addresses@App@@3IB=_ZN3App26cGameModeManager_addresses7DisposeE
    ?Dispose@cMessageManager_addresses@App@@3IB=_ZN3App25cMessageManager_addresses7DisposeE
    ?Dispose@cPropManager_addresses@App@@3IB=_ZN3App22cPropManager_addresses7DisposeE
    ?Dispose@cResourceManager_addresses@Resource@@3IB=_ZN8Resource26cResourceManager_addresses7DisposeE
    ?Dispose@cViewer_addresses@App@@3IB=_ZN3App17cViewer_addresses7DisposeE
    ?DisposeAllWindowFamilies@Window_addresses@UTFWin@@3IB=_ZN6UTFWin16Window_addresses24DisposeAllWindowFamiliesE
    ?DisposeInternal@cSpaceGfx_addresses@Simulator@@3IB=_ZN9Simulator19cSpaceGfx_addresses15DisposeInternalE
    ?DisposeReflectionRTTs@Terrain_addresses@@3IB=_ZN17Terrain_addresses21DisposeReflectionRTTsE
    ?DisposeRefractionRTTs@Terrain_addresses@@3IB=_ZN17Terrain_addresses21DisposeRefractionRTTsE
    ?DisposeWindowFamily@Window_addresses@UTFWin@@3IB=_ZN6UTFWin16Window_addresses19DisposeWindowFamilyE
    ?DoDatabaseChanged@cResourceManager_addresses@Resource@@3IB=_ZN8Resource26cResourceManager_addresses17DoDatabaseChangedE
    ?DoMessage@Window_addresses@UTFWin@@3IB=_ZN6UTFWin16Window_addresses9DoMessageE
    ?DoPostClose@PFRecordRead_addresses@Resource@@3IB=_ZN8Resource22PFRecordRead_addresses11DoPostCloseE
    ?DoPostClose@PFRecordWrite_addresses@Resource@@3IB=_ZN8Resource23PFRecordWrite_addresses11DoPostCloseE
    ?Draw@cTerrainSphereQuad_addresses@Terrain@@3IB=_ZN7Terrain28cTerrainSphereQuad_addresses4DrawE
    ?DrawLayer@cSkinPainterJob_addresses@Skinner@@3IB=_ZN7Skinner25cSkinPainterJob_addresses9DrawLayerE
    ?DrawSlicedStretchedImage@Graphics2D_addresses@UTFWin@@3IB=_ZN6UTFWin20Graphics2D_addresses24DrawSlicedStretchedImageE
    ?DrawSlicedTiledImage@Graphics2D_addresses@UTFWin@@3IB=_ZN6UTFWin20Graphics2D_addresses20DrawSlicedTiledImageE
    ?DrawTiledImage@Graphics2D_addresses@UTFWin@@3IB=_ZN6UTFWin20Graphics2D_addresses14DrawTiledImageE
    ?EAMain@cSporeApp_addresses@App@@3IB=_ZN3App19cSporeApp_addresses6EAMainE
    ?EarnAchievement@cAchievementsManager_addresses@Pollinator@@3IB=_ZN10Pollinator30cAchievementsManager_addresses15EarnAchievementE
    ?EndElement@XmlWriter_addresses@IO@@3IB=_ZN2IO19XmlWriter_addresses10EndElementE
    ?EndProcessingInstruction@XmlWriter_addresses@IO@@3IB=_ZN2IO19XmlWriter_addresses24EndProcessingInstructionE
    ?EndRender@cSkinnerTexturePainter_addresses@Skinner@@3IB=_ZN7Skinner32cSkinnerTexturePainter_addresses9EndRenderE
    ?EndScope@FormatParser_addresses@ArgScript@@3IB=_ZN9ArgScript22FormatParser_addresses8EndScopeE
    ?EndUpdate@cViewer_addresses@App@@3IB=_ZN3App17cViewer_addresses9EndUpdateE
    ?EnsurePlayer@cGameNounManager_addresses@Simulator@@3IB=_ZN9Simulator26cGameNounManager_addresses12EnsurePlayerE
    ?EnsureTrailingPathSeparator@IO_addresses@@3IB=_ZN12IO_addresses27EnsureTrailingPathSeparatorE
    ?EulerToMatrix@Math_addresses@@3IB=_ZN14Math_addresses13EulerToMatrixE
    ?EvaluateTriggerOp@cAchievementsManager_addresses@Pollinator@@3IB=_ZN10Pollinator30cAchievementsManager_addresses17EvaluateTriggerOpE
    ?Execute@cSkinPainterJobAmbientOcclusion_addresses@Skinner@@3IB=_ZN7Skinner41cSkinPainterJobAmbientOcclusion_addresses7ExecuteE
    ?Execute@cSkinPainterJobApplyBrushes_addresses@Skinner@@3IB=_ZN7Skinner37cSkinPainterJobApplyBrushes_addresses7ExecuteE
    ?Execute@cSkinPainterJobBumpToNormal_addresses@Skinner@@3IB=_ZN7Skinner37cSkinPainterJobBumpToNormal_addresses7ExecuteE
    ?Execute@cSkinPainterJobColorDilateRepeat_addresses@Skinner@@3IB=_ZN7Skinner42cSkinPainterJobColorDilateRepeat_addresses7ExecuteE
    ?Execute@cSkinPainterJobCopyRigblocksTintMaskAlpha_addresses@Skinner@@3IB=_ZN7Skinner51cSkinPainterJobCopyRigblocksTintMaskAlpha_addresses7ExecuteE
    ?Execute@cSkinPainterJobCopyTex1AlphaToTex0_addresses@Skinner@@3IB=_ZN7Skinner44cSkinPainterJobCopyTex1AlphaToTex0_addresses7ExecuteE
    ?Execute@cSkinPainterJobPaintParts_addresses@Skinner@@3IB=_ZN7Skinner35cSkinPainterJobPaintParts_addresses7ExecuteE
    ?ExecuteAction@cCreatureModeStrategy_addresses@App@@3IB=_ZN3App31cCreatureModeStrategy_addresses13ExecuteActionE
    ?ExecutePipeline@cSkinPainterPipeline_addresses@Skinner@@3IB=_ZN7Skinner30cSkinPainterPipeline_addresses15ExecutePipelineE
    ?Exists@Directory_addresses@IO@@3IB=_ZN2IO19Directory_addresses6ExistsE
    ?Exists@File_addresses@IO@@3IB=_ZN2IO14File_addresses6ExistsE
    ?ExpectChar@Lexer_addresses@ArgScript@@3IB=_ZN9ArgScript15Lexer_addresses10ExpectCharE
    ?Extract@Raster_addresses@RenderWare@@3IB=_ZN10RenderWare16Raster_addresses7ExtractE
    ?Fill@Raster_addresses@RenderWare@@3IB=_ZN10RenderWare16Raster_addresses4FillE
    ?FillWriteBuffer@StreamBuffer_addresses@IO@@3IB=_ZN2IO22StreamBuffer_addresses15FillWriteBufferE
    ?FindCache@cResourceManager_addresses@Resource@@3IB=_ZN8Resource26cResourceManager_addresses9FindCacheE
    ?FindCellsInRadius@Cell_addresses@Simulator@@3IB=_ZN9Simulator14Cell_addresses17FindCellsInRadiusE
    ?FindClosestStar@cStarManager_addresses@Simulator@@3IB=_ZN9Simulator22cStarManager_addresses15FindClosestStarE
    ?FindDatabase@cResourceManager_addresses@Resource@@3IB=_ZN8Resource26cResourceManager_addresses12FindDatabaseE
    ?FindFactory@cResourceManager_addresses@Resource@@3IB=_ZN8Resource26cResourceManager_addresses11FindFactoryE
    ?FindRecord@cResourceManager_addresses@Resource@@3IB=_ZN8Resource26cResourceManager_addresses10FindRecordE
    ?FindStars@cStarManager_addresses@Simulator@@3IB=_ZN9Simulator22cStarManager_addresses9FindStarsE
    ?FindSwitch@CommandLine_addresses@App@@3IB=_ZN3App21CommandLine_addresses10FindSwitchE
    ?FindWindowByID@PlayModeUI_addresses@Editors@@3IB=_ZN7Editors20PlayModeUI_addresses14FindWindowByIDE
    ?FindWindowByID@UILayout_addresses@UTFWin@@3IB=_ZN6UTFWin18UILayout_addresses14FindWindowByIDE
    ?FindWindowByID@Window_addresses@UTFWin@@3IB=_ZN6UTFWin16Window_addresses14FindWindowByIDE
    ?FindWindowTypeByID@Window_addresses@UTFWin@@3IB=_ZN6UTFWin16Window_addresses18FindWindowTypeByIDE
    ?FinishBackgroundLoad@cModelWorld_addresses@Graphics@@3IB=_ZN8Graphics21cModelWorld_addresses20FinishBackgroundLoadE
    ?FlipPage@PaletteCategoryUI_addresses@Palettes@@3IB=_ZN8Palettes27PaletteCategoryUI_addresses8FlipPageE
    ?Flush@DatabaseDirectoryFiles_addresses@Resource@@3IB=_ZN8Resource32DatabaseDirectoryFiles_addresses5FlushE
    ?Flush@DatabasePackedFile_addresses@Resource@@3IB=_ZN8Resource28DatabasePackedFile_addresses5FlushE
    ?Flush@FileStream_addresses@IO@@3IB=_ZN2IO20FileStream_addresses5FlushE
    ?Flush@FixedMemoryStream_addresses@IO@@3IB=_ZN2IO27FixedMemoryStream_addresses5FlushE
    ?Flush@MemoryStream_addresses@IO@@3IB=_ZN2IO22MemoryStream_addresses5FlushE
    ?Flush@PFRecordRead_addresses@Resource@@3IB=_ZN8Resource22PFRecordRead_addresses5FlushE
    ?Flush@PFRecordWrite_addresses@Resource@@3IB=_ZN8Resource23PFRecordWrite_addresses5FlushE
    ?Flush@StreamBuffer_addresses@IO@@3IB=_ZN2IO22StreamBuffer_addresses16FlushWriteBufferE
    ?Flush@StreamChild_addresses@IO@@3IB=_ZN2IO21StreamChild_addresses5FlushE
    ?Flush@StreamNull_addresses@IO@@3IB=_ZN2IO20StreamNull_addresses5FlushE
    ?FlushCache@cResourceManager_addresses@Resource@@3IB=_ZN8Resource26cResourceManager_addresses10FlushCacheE
    ?FlushWriteBuffer@StreamBuffer_addresses@IO@@3IB=_ZN2IO22StreamBuffer_addresses16FlushWriteBufferE
    ?FolderPathFromLocale@Thumbnail_cImportExport_addresses@App@@3IB=_ZN3App33Thumbnail_cImportExport_addresses20FolderPathFromLocaleE
    ?ForgetKeyName@cResourceManager_addresses@Resource@@3IB=_ZN8Resource26cResourceManager_addresses13ForgetKeyNameE
    ?Free@FixedPoolAllocator_addresses@@3IB=_ZN28FixedPoolAllocator_addresses4FreeE
    ?FromRigblocks@cEditorSkinMeshBase_addresses@Editors@@3IB=_ZN7Editors29cEditorSkinMeshBase_addresses13FromRigblocksE
    ?FromString@Line_addresses@ArgScript@@3IB=_ZN9ArgScript14Line_addresses10FromStringE
    ?FrustumTestAABB@cFrustumCull_addresses@Graphics@@3IB=_ZN8Graphics22cFrustumCull_addresses15FrustumTestAABBE
    ?FrustumTestSphere@cFrustumCull_addresses@Graphics@@3IB=_ZN8Graphics22cFrustumCull_addresses17FrustumTestSphereE
    ?GalaxyCoordinatesTo3D@Simulator_addresses@@3IB=_ZN19Simulator_addresses21GalaxyCoordinatesTo3DE
    ?Generate@cTerrainSphere_addresses@Sphere@Terrain@@3IB=_ZN7Terrain6Sphere24cTerrainSphere_addresses8GenerateE
    ?Generate@cTerrainSphere_addresses@Terrain@@3IB=_ZN7Terrain24cTerrainSphere_addresses8GenerateE
    ?GenerateCelestialBodiesEffects@cSolarSystem_addresses@Simulator@@3IB=_ZN9Simulator22cSolarSystem_addresses30GenerateCelestialBodiesEffectsE
    ?GenerateEllipticalOrbit@cStarManager_addresses@Simulator@@3IB=_ZN9Simulator22cStarManager_addresses23GenerateEllipticalOrbitE
    ?GenerateExpansionArea@ColorSwatchUI_addresses@Palettes@@3IB=_ZN8Palettes23ColorSwatchUI_addresses21GenerateExpansionAreaE
    ?GenerateGraphics@cSolarSystem_addresses@Simulator@@3IB=_ZN9Simulator22cSolarSystem_addresses16GenerateGraphicsE
    ?GenerateNPCStore@cSpaceTrading_addresses@Simulator@@3IB=_ZN9Simulator23cSpaceTrading_addresses16GenerateNPCStoreE
    ?GeneratePlanetsForStar@cStarManager_addresses@Simulator@@3IB=_ZN9Simulator22cStarManager_addresses22GeneratePlanetsForStarE
    ?GenerateRandomName@cSpaceNames_addresses@Simulator@@3IB=_ZN9Simulator21cSpaceNames_addresses18GenerateRandomNameE
    ?GenerateSolSystem@cStarManager_addresses@Simulator@@3IB=_ZN9Simulator22cStarManager_addresses17GenerateSolSystemE
    ?GenerateUI@PlayModeAnimations_addresses@Editors@@3IB=_ZN7Editors28PlayModeAnimations_addresses10GenerateUIE
    ?Get@AudioSystem_addresses@Audio@@3IB=_ZN5Audio21AudioSystem_addresses3GetE
    ?Get@Canvas_addresses@App@@3IB=_ZN3App16Canvas_addresses10GetCaptionE
    ?Get@CommandLine_addresses@App@@3IB=_ZN3App21CommandLine_addresses3GetE
    ?Get@IAnimManager_addresses@Anim@@3IB=_ZN4Anim22IAnimManager_addresses3GetE
    ?Get@IAppSystem_addresses@App@@3IB=_ZN3App20IAppSystem_addresses3GetE
    ?Get@IBakeManager_addresses@Editors@@3IB=_ZN7Editors22IBakeManager_addresses3GetE
    ?Get@ICheatManager_addresses@App@@3IB=_ZN3App23ICheatManager_addresses3GetE
    ?Get@IClassManager_addresses@App@@3IB=_ZN3App23IClassManager_addresses3GetE
    ?Get@IConfigManager_addresses@App@@3IB=_ZN3App24IConfigManager_addresses3GetE
    ?Get@IEffectsManager_addresses@Swarm@@3IB=_ZN5Swarm25IEffectsManager_addresses3GetE
    ?Get@IGameModeManager_addresses@App@@3IB=_ZN3App26IGameModeManager_addresses3GetE
    ?Get@IJobManager_addresses@App@@3IB=_ZN3App21IJobManager_addresses3GetE
    ?Get@ILightingManager_addresses@Graphics@@3IB=_ZN8Graphics26ILightingManager_addresses3GetE
    ?Get@IMaterialManager_addresses@Graphics@@3IB=_ZN8Graphics26IMaterialManager_addresses3GetE
    ?Get@IMessageManager_addresses@App@@3IB=_ZN3App25IMessageManager_addresses3GetE
    ?Get@IModelManager_addresses@Graphics@@3IB=_ZN8Graphics23IModelManager_addresses3GetE
    ?Get@IPropManager_addresses@App@@3IB=_ZN3App22IPropManager_addresses3GetE
    ?Get@IRenderManager_addresses@Graphics@@3IB=_ZN8Graphics24IRenderManager_addresses3GetE
    ?Get@IRenderTargetManager_addresses@Graphics@@3IB=_ZN8Graphics30IRenderTargetManager_addresses3GetE
    ?Get@IRenderer_addresses@Graphics@@3IB=_ZN8Graphics19IRenderer_addresses3GetE
    ?Get@IResourceManager_addresses@Resource@@3IB=_ZN8Resource26IResourceManager_addresses3GetE
    ?Get@IShadowManager_addresses@Graphics@@3IB=_ZN8Graphics24IShadowManager_addresses3GetE
    ?Get@IShadowWorld_addresses@Graphics@@3IB=_ZN8Graphics22IShadowWorld_addresses3GetE
    ?Get@IStateManager_addresses@App@@3IB=_ZN3App23IStateManager_addresses3GetE
    ?Get@ISwarmManager_addresses@Swarm@@3IB=_ZN5Swarm23ISwarmManager_addresses3GetE
    ?Get@ITerrainResourceManager_addresses@Terrain@@3IB=_ZN7Terrain33ITerrainResourceManager_addresses3GetE
    ?Get@ITextureManager_addresses@Graphics@@3IB=_ZN8Graphics25ITextureManager_addresses3GetE
    ?Get@IThumbnailManager_addresses@Graphics@@3IB=_ZN8Graphics27IThumbnailManager_addresses3GetE
    ?Get@IWindowManager_addresses@UTFWin@@3IB=_ZN6UTFWin24IWindowManager_addresses3GetE
    ?Get@Thumbnail_cImportExport_addresses@App@@3IB=_ZN3App33Thumbnail_cImportExport_addresses13GetFolderPathE
    ?Get@cAchievementsManager_addresses@Pollinator@@3IB=_ZN10Pollinator30cAchievementsManager_addresses24GetAchievementDefinitionE
    ?Get@cAnimalSpeciesManager_addresses@Simulator@@3IB=_ZN9Simulator31cAnimalSpeciesManager_addresses3GetE
    ?Get@cAssetViewManager_addresses@Sporepedia@@3IB=_ZN10Sporepedia27cAssetViewManager_addresses3GetE
    ?Get@cCommManager_addresses@Simulator@@3IB=_ZN9Simulator22cCommManager_addresses3GetE
    ?Get@cCreatureGameData_addresses@Simulator@@3IB=_ZN9Simulator27cCreatureGameData_addresses14GetAbilityModeE
    ?Get@cCreatureModeStrategy_addresses@App@@3IB=_ZN3App31cCreatureModeStrategy_addresses3GetE
    ?Get@cCursorManager_addresses@UTFWin@@3IB=_ZN6UTFWin24cCursorManager_addresses15GetActiveCursorE
    ?Get@cGameBehaviorManager_addresses@Simulator@@3IB=_ZN9Simulator30cGameBehaviorManager_addresses3GetE
    ?Get@cGameInputManager_addresses@Simulator@@3IB=_ZN9Simulator27cGameInputManager_addresses3GetE
    ?Get@cGameModeManager_addresses@Simulator@@3IB=_ZN9Simulator26cGameModeManager_addresses19GetDifficultyTuningE
    ?Get@cGameNounManager_addresses@Simulator@@3IB=_ZN9Simulator26cGameNounManager_addresses21GetPlayerCivilizationE
    ?Get@cGamePersistenceManager_addresses@Simulator@@3IB=_ZN9Simulator33cGamePersistenceManager_addresses3GetE
    ?Get@cGameTimeManager_addresses@Simulator@@3IB=_ZN9Simulator26cGameTimeManager_addresses13GetPauseCountE
    ?Get@cGameViewManager_addresses@Simulator@@3IB=_ZN9Simulator26cGameViewManager_addresses3GetE
    ?Get@cHintManager_addresses@UI@@3IB=_ZN2UI22cHintManager_addresses3GetE
    ?Get@cIDGenerator_addresses@App@@3IB=_ZN3App22cIDGenerator_addresses3GetE
    ?Get@cLayerManager_addresses@UI@@3IB=_ZN2UI23cLayerManager_addresses3GetE
    ?Get@cLocaleManager_addresses@App@@3IB=_ZN3App24cLocaleManager_addresses3GetE
    ?Get@cMissionManager_addresses@Simulator@@3IB=_ZN9Simulator25cMissionManager_addresses14GetMissionByIDE
    ?Get@cObjectPool__addresses@Simulator@@3IB=_ZN9Simulator22cObjectPool__addresses15GetIfNotDeletedE
    ?Get@cObjectTemplateDB_addresses@OTDB@Sporepedia@@3IB=_ZN10Sporepedia4OTDB27cObjectTemplateDB_addresses3GetE
    ?Get@cPaintSystem_addresses@Skinner@@3IB=_ZN7Skinner22cPaintSystem_addresses3GetE
    ?Get@cPlanetModel_addresses@Simulator@@3IB=_ZN9Simulator22cPlanetModel_addresses10GetGravityE
    ?Get@cPlantSpeciesManager_addresses@Simulator@@3IB=_ZN9Simulator30cPlantSpeciesManager_addresses3GetE
    ?Get@cRelationshipManager_addresses@Simulator@@3IB=_ZN9Simulator30cRelationshipManager_addresses25GetRelationshipEventValueE
    ?Get@cResourceKeyGenerator_addresses@App@@3IB=_ZN3App31cResourceKeyGenerator_addresses3GetE
    ?Get@cScenarioSimulator_addresses@Simulator@@3IB=_ZN9Simulator28cScenarioSimulator_addresses3GetE
    ?Get@cSimulatorPlayerUFO_addresses@Simulator@@3IB=_ZN9Simulator29cSimulatorPlayerUFO_addresses3GetE
    ?Get@cSimulatorSpaceGame_addresses@Simulator@@3IB=_ZN9Simulator29cSimulatorSpaceGame_addresses3GetE
    ?Get@cSimulatorSystem_addresses@Simulator@@3IB=_ZN9Simulator26cSimulatorSystem_addresses3GetE
    ?Get@cSpaceGfx_addresses@Simulator@@3IB=_ZN9Simulator19cSpaceGfx_addresses3GetE
    ?Get@cSpaceNames_addresses@Simulator@@3IB=_ZN9Simulator21cSpaceNames_addresses3GetE
    ?Get@cSpaceTrading_addresses@Simulator@@3IB=_ZN9Simulator23cSpaceTrading_addresses19GetRareHasBeenFoundE
    ?Get@cSpeciesManager_addresses@Editors@@3IB=_ZN7Editors25cSpeciesManager_addresses17GetSpeciesProfileE
    ?Get@cStarManager_addresses@Simulator@@3IB=_ZN9Simulator22cStarManager_addresses15GetPlanetRecordE
    ?Get@cSwatchManager_addresses@Palettes@@3IB=_ZN8Palettes24cSwatchManager_addresses3GetE
    ?Get@cTerraformingManager_addresses@Simulator@@3IB=_ZN9Simulator30cTerraformingManager_addresses3GetE
    ?Get@cTimeOfDay_addresses@Simulator@@3IB=_ZN9Simulator20cTimeOfDay_addresses3GetE
    ?Get@cToolManager_addresses@Simulator@@3IB=_ZN9Simulator22cToolManager_addresses11GetStrategyE
    ?Get@cTuningSpine_addresses@Editors@@3IB=_ZN7Editors22cTuningSpine_addresses3GetE
    ?Get@cUIEventLog_addresses@Simulator@@3IB=_ZN9Simulator21cUIEventLog_addresses3GetE
    ?GetAbilityIndexByType@cCreatureBase_addresses@Simulator@@3IB=_ZN9Simulator23cCreatureBase_addresses21GetAbilityIndexByTypeE
    ?GetAbilityMode@cCreatureGameData_addresses@Simulator@@3IB=_ZN9Simulator27cCreatureGameData_addresses14GetAbilityModeE
    ?GetAccessFlags@DatabasePackedFile_addresses@Resource@@3IB=_ZN8Resource28DatabasePackedFile_addresses14GetAccessFlagsE
    ?GetAccessFlags@FileStream_addresses@IO@@3IB=_ZN2IO20FileStream_addresses14GetAccessFlagsE
    ?GetAccessFlags@FixedMemoryStream_addresses@IO@@3IB=_ZN2IO27FixedMemoryStream_addresses14GetAccessFlagsE
    ?GetAccessFlags@MemoryStream_addresses@IO@@3IB=_ZN2IO22MemoryStream_addresses14GetAccessFlagsE
    ?GetAccessFlags@PFRecordRead_addresses@Resource@@3IB=_ZN8Resource22PFRecordRead_addresses14GetAccessFlagsE
    ?GetAccessFlags@PFRecordWrite_addresses@Resource@@3IB=_ZN8Resource23PFRecordWrite_addresses14GetAccessFlagsE
    ?GetAccessFlags@StreamBuffer_addresses@IO@@3IB=_ZN2IO22StreamBuffer_addresses14GetAccessFlagsE
    ?GetAccessFlags@StreamChild_addresses@IO@@3IB=_ZN2IO21StreamChild_addresses14GetAccessFlagsE
    ?GetAccessFlags@StreamNull_addresses@IO@@3IB=_ZN2IO20StreamNull_addresses14GetAccessFlagsE
    ?GetAchievementDefinition@cAchievementsManager_addresses@Pollinator@@3IB=_ZN10Pollinator30cAchievementsManager_addresses24GetAchievementDefinitionE
    ?GetActiveCamera@cCameraManager_addresses@App@@3IB=_ZN3App24cCameraManager_addresses15GetActiveCameraE
    ?GetActiveCameraID@cCameraManager_addresses@App@@3IB=_ZN3App24cCameraManager_addresses17GetActiveCameraIDE
    ?GetActiveCameraIndex@cCameraManager_addresses@App@@3IB=_ZN3App24cCameraManager_addresses20GetActiveCameraIndexE
    ?GetActiveCursor@cCursorManager_addresses@UTFWin@@3IB=_ZN6UTFWin24cCursorManager_addresses15GetActiveCursorE
    ?GetActiveDifficultyTuning@cGameModeManager_addresses@Simulator@@3IB=_ZN9Simulator26cGameModeManager_addresses25GetActiveDifficultyTuningE
    ?GetActiveMode@cGameModeManager_addresses@App@@3IB=_ZN3App26cGameModeManager_addresses13GetActiveModeE
    ?GetActiveModeID@cGameModeManager_addresses@App@@3IB=_ZN3App26cGameModeManager_addresses15GetActiveModeIDE
    ?GetActiveStar@Simulator_addresses@@3IB=_ZN19Simulator_addresses13GetActiveStarE
    ?GetActiveStarRecord@Simulator_addresses@@3IB=_ZN19Simulator_addresses19GetActiveStarRecordE
    ?GetAimPoint@cAbductToolStrategy_addresses@Simulator@@3IB=_ZN9Simulator29cAbductToolStrategy_addresses11GetAimPointE
    ?GetAimPoint@cToolStrategy_addresses@Simulator@@3IB=_ZN9Simulator23cToolStrategy_addresses11GetAimPointE
    ?GetAlignmentHorizontal@ImageDrawable_addresses@UTFWin@@3IB=_ZN6UTFWin23ImageDrawable_addresses22GetAlignmentHorizontalE
    ?GetAlignmentVertical@ImageDrawable_addresses@UTFWin@@3IB=_ZN6UTFWin23ImageDrawable_addresses20GetAlignmentVerticalE
    ?GetAllDBPFs@cResourceManager_addresses@Resource@@3IB=_ZN8Resource26cResourceManager_addresses11GetAllDBPFsE
    ?GetAllFiles@PFIndexModifiable_addresses@Resource@@3IB=_ZN8Resource27PFIndexModifiable_addresses11GetAllFilesE
    ?GetAllListIDs@cPropManager_addresses@App@@3IB=_ZN3App22cPropManager_addresses13GetAllListIDsE
    ?GetAllocator@DatabasePackedFile_addresses@Resource@@3IB=_ZN8Resource28DatabasePackedFile_addresses12GetAllocatorE
    ?GetAllocator@IO_addresses@@3IB=_ZN12IO_addresses12GetAllocatorE
    ?GetAllocator@UTFWin_addresses@@3IB=_ZN16UTFWin_addresses12GetAllocatorE
    ?GetAnimalTarget@cCreatureBase_addresses@Simulator@@3IB=_ZN9Simulator23cCreatureBase_addresses15GetAnimalTargetE
    ?GetAnimatedCreature@cEditorAnimWorld_addresses@Editors@@3IB=_ZN7Editors26cEditorAnimWorld_addresses19GetAnimatedCreatureE
    ?GetAnimationID@cCreatureAbility_addresses@Simulator@@3IB=_ZN9Simulator26cCreatureAbility_addresses14GetAnimationIDE
    ?GetArchetypeRelationshipsID@Simulator_addresses@@3IB=_ZN19Simulator_addresses27GetArchetypeRelationshipsIDE
    ?GetArea@Window_addresses@UTFWin@@3IB=_ZN6UTFWin16Window_addresses7GetAreaE
    ?GetArgScript@cCheatManager_addresses@App@@3IB=_ZN3App23cCheatManager_addresses12GetArgScriptE
    ?GetArgumentAt@Line_addresses@ArgScript@@3IB=_ZN9ArgScript14Line_addresses13GetArgumentAtE
    ?GetArguments@Line_addresses@ArgScript@@3IB=_ZN9ArgScript14Line_addresses12GetArgumentsE
    ?GetArgumentsCount@Line_addresses@ArgScript@@3IB=_ZN9ArgScript14Line_addresses17GetArgumentsCountE
    ?GetArgumentsRange@Line_addresses@ArgScript@@3IB=_ZN9ArgScript14Line_addresses17GetArgumentsRangeE
    ?GetArrayBool@Property_addresses@App@@3IB=_ZN3App18Property_addresses12GetArrayBoolE
    ?GetArrayColorRGB@Property_addresses@App@@3IB=_ZN3App18Property_addresses16GetArrayColorRGBE
    ?GetArrayFloat@Property_addresses@App@@3IB=_ZN3App18Property_addresses13GetArrayFloatE
    ?GetArrayInt32@Property_addresses@App@@3IB=_ZN3App18Property_addresses13GetArrayInt32E
    ?GetArrayKey@Property_addresses@App@@3IB=_ZN3App18Property_addresses11GetArrayKeyE
    ?GetArrayString16@Property_addresses@App@@3IB=_ZN3App18Property_addresses16GetArrayString16E
    ?GetArrayString8@Property_addresses@App@@3IB=_ZN3App18Property_addresses15GetArrayString8E
    ?GetArrayTransform@Property_addresses@App@@3IB=_ZN3App18Property_addresses17GetArrayTransformE
    ?GetArrayUInt32@Property_addresses@App@@3IB=_ZN3App18Property_addresses14GetArrayUInt32E
    ?GetArrayVector2@Property_addresses@App@@3IB=_ZN3App18Property_addresses15GetArrayVector2E
    ?GetArrayVector3@Property_addresses@App@@3IB=_ZN3App18Property_addresses15GetArrayVector3E
    ?GetArrayVector4@Property_addresses@App@@3IB=_ZN3App18Property_addresses15GetArrayVector4E
    ?GetAssetID@cSPAssetDataOTDB_addresses@Sporepedia@@3IB=_ZN10Sporepedia26cSPAssetDataOTDB_addresses10GetAssetIDE
    ?GetAsyncResource@cResourceManager_addresses@Resource@@3IB=_ZN8Resource26cResourceManager_addresses16GetAsyncResourceE
    ?GetAuthorID@cSPAssetDataOTDB_addresses@Sporepedia@@3IB=_ZN10Sporepedia26cSPAssetDataOTDB_addresses11GetAuthorIDE
    ?GetAuthorName@cSPAssetDataOTDB_addresses@Sporepedia@@3IB=_ZN10Sporepedia26cSPAssetDataOTDB_addresses13GetAuthorNameE
    ?GetAvailable@FileStream_addresses@IO@@3IB=_ZN2IO20FileStream_addresses12GetAvailableE
    ?GetAvailable@FixedMemoryStream_addresses@IO@@3IB=_ZN2IO27FixedMemoryStream_addresses12GetAvailableE
    ?GetAvailable@MemoryStream_addresses@IO@@3IB=_ZN2IO22MemoryStream_addresses12GetAvailableE
    ?GetAvailable@PFRecordRead_addresses@Resource@@3IB=_ZN8Resource22PFRecordRead_addresses12GetAvailableE
    ?GetAvailable@PFRecordWrite_addresses@Resource@@3IB=_ZN8Resource23PFRecordWrite_addresses12GetAvailableE
    ?GetAvailable@StreamBuffer_addresses@IO@@3IB=_ZN2IO22StreamBuffer_addresses12GetAvailableE
    ?GetAvailable@StreamChild_addresses@IO@@3IB=_ZN2IO21StreamChild_addresses12GetAvailableE
    ?GetAvailable@StreamNull_addresses@IO@@3IB=_ZN2IO20StreamNull_addresses12GetAvailableE
    ?GetAvatarNormalizingScale@cCreatureGameData_addresses@Simulator@@3IB=_ZN9Simulator27cCreatureGameData_addresses25GetAvatarNormalizingScaleE
    ?GetBackgroundColor@DialogDrawable_addresses@UTFWin@@3IB=_ZN6UTFWin24DialogDrawable_addresses18GetBackgroundColorE
    ?GetBackgroundImageKey@cSPAssetDataOTDB_addresses@Sporepedia@@3IB=_ZN10Sporepedia26cSPAssetDataOTDB_addresses21GetBackgroundImageKeyE
    ?GetBackgroundTiling@DialogDrawable_addresses@UTFWin@@3IB=_ZN6UTFWin24DialogDrawable_addresses19GetBackgroundTilingE
    ?GetBinarySystemBaseRadius@Simulator_addresses@@3IB=_ZN19Simulator_addresses25GetBinarySystemBaseRadiusE
    ?GetBinarySystemStarTypes@Simulator_addresses@@3IB=_ZN19Simulator_addresses24GetBinarySystemStarTypesE
    ?GetBool@Property_addresses@App@@3IB=_ZN3App18Property_addresses7GetBoolE
    ?GetBuildVersion@ModAPI@@YAHXZ=_ZN6ModAPI15GetBuildVersionEv
    ?GetCString16@Property_addresses@App@@3IB=_ZN3App18Property_addresses12GetCString16E
    ?GetCString8@Property_addresses@App@@3IB=_ZN3App18Property_addresses11GetCString8E
    ?GetCacheList@cResourceManager_addresses@Resource@@3IB=_ZN8Resource26cResourceManager_addresses12GetCacheListE
    ?GetCachedResource@cResourceManager_addresses@Resource@@3IB=_ZN8Resource26cResourceManager_addresses17GetCachedResourceE
    ?GetCamera@cCameraManager_addresses@App@@3IB=_ZN3App24cCameraManager_addresses11GetCameraAtE
    ?GetCameraAt@cCameraManager_addresses@App@@3IB=_ZN3App24cCameraManager_addresses11GetCameraAtE
    ?GetCameraID@cCameraManager_addresses@App@@3IB=_ZN3App24cCameraManager_addresses11GetCameraIDE
    ?GetCameraIDAt@cCameraManager_addresses@App@@3IB=_ZN3App24cCameraManager_addresses13GetCameraIDAtE
    ?GetCameraManager@cGameModeManager_addresses@App@@3IB=_ZN3App26cGameModeManager_addresses16GetCameraManagerE
    ?GetCameraMaterialLODs@cViewer_addresses@App@@3IB=_ZN3App17cViewer_addresses21GetCameraMaterialLODsE
    ?GetCameraToMouse@cViewer_addresses@App@@3IB=_ZN3App17cViewer_addresses16GetCameraToMouseE
    ?GetCameraToPoint@cViewer_addresses@App@@3IB=_ZN3App17cViewer_addresses16GetCameraToPointE
    ?GetCamerasCount@cCameraManager_addresses@App@@3IB=_ZN3App24cCameraManager_addresses15GetCamerasCountE
    ?GetCanvasClass@Canvas_addresses@App@@3IB=_ZN3App16Canvas_addresses14GetCanvasClassE
    ?GetCaption@Canvas_addresses@App@@3IB=_ZN3App16Canvas_addresses10GetCaptionE
    ?GetCaption@Window_addresses@UTFWin@@3IB=_ZN6UTFWin16Window_addresses10GetCaptionE
    ?GetCategory@PaletteCategory_addresses@Palettes@@3IB=_ZN8Palettes25PaletteCategory_addresses11GetCategoryE
    ?GetCategory@PaletteMain_addresses@Palettes@@3IB=_ZN8Palettes21PaletteMain_addresses11GetCategoryE
    ?GetCheat@cCheatManager_addresses@App@@3IB=_ZN3App23cCheatManager_addresses8GetCheatE
    ?GetClass@cScenarioData_addresses@Simulator@@3IB=_ZN9Simulator23cScenarioData_addresses8GetClassE
    ?GetClientArea@Canvas_addresses@App@@3IB=_ZN3App16Canvas_addresses13GetClientAreaE
    ?GetColorRGB@Property_addresses@App@@3IB=_ZN3App18Property_addresses11GetColorRGBE
    ?GetColorRGBA@Property_addresses@App@@3IB=_ZN3App18Property_addresses12GetColorRGBAE
    ?GetColors@ModulateEffect_addresses@UTFWin@@3IB=_ZN6UTFWin24ModulateEffect_addresses9GetColorsE
    ?GetCommandID@Window_addresses@UTFWin@@3IB=_ZN6UTFWin16Window_addresses12GetCommandIDE
    ?GetComponentName@Window_addresses@UTFWin@@3IB=_ZN6UTFWin16Window_addresses16GetComponentNameE
    ?GetConsequenceTraits@cSPAssetDataOTDB_addresses@Sporepedia@@3IB=_ZN10Sporepedia26cSPAssetDataOTDB_addresses20GetConsequenceTraitsE
    ?GetContainerWindow@UILayout_addresses@UTFWin@@3IB=_ZN6UTFWin18UILayout_addresses18GetContainerWindowE
    ?GetControlID@Window_addresses@UTFWin@@3IB=_ZN6UTFWin16Window_addresses12GetControlIDE
    ?GetCreationName@EditorModel_addresses@Editors@@3IB=_ZN7Editors21EditorModel_addresses15GetCreationNameE
    ?GetCreatureController@cEditorAnimWorld_addresses@Editors@@3IB=_ZN7Editors26cEditorAnimWorld_addresses21GetCreatureControllerE
    ?GetCurrentAdvectInfo@Cell_addresses@Simulator@@3IB=_ZN9Simulator14Cell_addresses20GetCurrentAdvectInfoE
    ?GetCurrentClassAct@cScenarioData_addresses@Simulator@@3IB=_ZN9Simulator23cScenarioData_addresses18GetCurrentClassActE
    ?GetCurrentColors@Skinner_addresses@@3IB=_ZN17Skinner_addresses16GetCurrentColorsE
    ?GetCurrentContext@Simulator_addresses@@3IB=_ZN19Simulator_addresses17GetCurrentContextE
    ?GetCurrentScope@FormatParser_addresses@ArgScript@@3IB=_ZN9ArgScript22FormatParser_addresses15GetCurrentScopeE
    ?GetCursorID@Window_addresses@UTFWin@@3IB=_ZN6UTFWin16Window_addresses11GetCursorIDE
    ?GetDBPF@cResourceManager_addresses@Resource@@3IB=_ZN8Resource26cResourceManager_addresses7GetDBPFE
    ?GetDamageAmount@Cell_addresses@Simulator@@3IB=_ZN9Simulator14Cell_addresses15GetDamageAmountE
    ?GetDamping@BiStateEffect_addresses@UTFWin@@3IB=_ZN6UTFWin23BiStateEffect_addresses10GetDampingE
    ?GetData@Cell_addresses@Simulator@@3IB=_ZN9Simulator14Cell_addresses7GetDataE
    ?GetData@cGameNounManager_addresses@Simulator@@3IB=_ZN9Simulator26cGameNounManager_addresses7GetDataE
    ?GetDataEnd@PFIndexModifiable_addresses@Resource@@3IB=_ZN8Resource27PFIndexModifiable_addresses10GetDataEndE
    ?GetDatabase@PFRecordRead_addresses@Resource@@3IB=_ZN8Resource22PFRecordRead_addresses11GetDatabaseE
    ?GetDatabase@PFRecordWrite_addresses@Resource@@3IB=_ZN8Resource23PFRecordWrite_addresses11GetDatabaseE
    ?GetDatabaseList@cResourceManager_addresses@Resource@@3IB=_ZN8Resource26cResourceManager_addresses15GetDatabaseListE
    ?GetDatabaseType@DatabasePackedFile_addresses@Resource@@3IB=_ZN8Resource28DatabasePackedFile_addresses15GetDatabaseTypeE
    ?GetDelay@CascadeEffect_addresses@UTFWin@@3IB=_ZN6UTFWin23CascadeEffect_addresses8GetDelayE
    ?GetDescription@cSPAssetDataOTDB_addresses@Sporepedia@@3IB=_ZN10Sporepedia26cSPAssetDataOTDB_addresses14GetDescriptionE
    ?GetDifficultyTuning@cGameModeManager_addresses@Simulator@@3IB=_ZN9Simulator26cGameModeManager_addresses19GetDifficultyTuningE
    ?GetDimensions@ButtonDrawableRadio_addresses@UTFWin@@3IB=_ZN6UTFWin29ButtonDrawableRadio_addresses13GetDimensionsE
    ?GetDimensions@ButtonDrawableStandard_addresses@UTFWin@@3IB=_ZN6UTFWin32ButtonDrawableStandard_addresses13GetDimensionsE
    ?GetDimensions@ComboBoxDrawable_addresses@UTFWin@@3IB=_ZN6UTFWin26ComboBoxDrawable_addresses13GetDimensionsE
    ?GetDimensions@DialogDrawable_addresses@UTFWin@@3IB=_ZN6UTFWin24DialogDrawable_addresses13GetDimensionsE
    ?GetDimensions@FrameDrawable_addresses@UTFWin@@3IB=_ZN6UTFWin23FrameDrawable_addresses13GetDimensionsE
    ?GetDimensions@ImageDrawable_addresses@UTFWin@@3IB=_ZN6UTFWin23ImageDrawable_addresses13GetDimensionsE
    ?GetDimensions@ScrollbarDrawable_addresses@UTFWin@@3IB=_ZN6UTFWin27ScrollbarDrawable_addresses13GetDimensionsE
    ?GetDimensions@SliderDrawable_addresses@UTFWin@@3IB=_ZN6UTFWin24SliderDrawable_addresses13GetDimensionsE
    ?GetDimensions@SpinnerDrawable_addresses@UTFWin@@3IB=_ZN6UTFWin25SpinnerDrawable_addresses13GetDimensionsE
    ?GetDimensions@SporeStdDrawable_addresses@UTFWin@@3IB=_ZN6UTFWin26SporeStdDrawable_addresses13GetDimensionsE
    ?GetDimensions@StdDrawable_addresses@UTFWin@@3IB=_ZN6UTFWin21StdDrawable_addresses13GetDimensionsE
    ?GetDimensions@VariableWidthDrawable_addresses@UTFWin@@3IB=_ZN6UTFWin31VariableWidthDrawable_addresses13GetDimensionsE
    ?GetDirFromID@Paths_addresses@Resource@@3IB=_ZN8Resource15Paths_addresses12GetDirFromIDE
    ?GetDirectory@Paths_addresses@Resource@@3IB=_ZN8Resource15Paths_addresses12GetDirectoryE
    ?GetDirectoryAndEffectIndex@cEffectsManager_addresses@Swarm@@3IB=_ZN5Swarm25cEffectsManager_addresses26GetDirectoryAndEffectIndexE
    ?GetDirectoryAndEffectIndex@cSwarmManager_addresses@Swarm@@3IB=_ZN5Swarm23cSwarmManager_addresses26GetDirectoryAndEffectIndexE
    ?GetDrawable@Window_addresses@UTFWin@@3IB=_ZN6UTFWin16Window_addresses11GetDrawableE
    ?GetEase@BiStateEffect_addresses@UTFWin@@3IB=_ZN6UTFWin23BiStateEffect_addresses7GetEaseE
    ?GetEditModeActIndex@cScenarioData_addresses@Simulator@@3IB=_ZN9Simulator23cScenarioData_addresses19GetEditModeActIndexE
    ?GetEffectFromPools@cCreatureBase_addresses@Simulator@@3IB=_ZN9Simulator23cCreatureBase_addresses18GetEffectFromPoolsE
    ?GetElapsedTicks@Clock_addresses@@3IB=_ZN15Clock_addresses15GetElapsedTicksE
    ?GetElapsedTime@Clock_addresses@@3IB=_ZN15Clock_addresses14GetElapsedTimeE
    ?GetEmpireForStar@cStarManager_addresses@Simulator@@3IB=_ZN9Simulator22cStarManager_addresses16GetEmpireForStarE
    ?GetEnum@Line_addresses@ArgScript@@3IB=_ZN9ArgScript14Line_addresses7GetEnumE
    ?GetEventFlags@BiStateEffect_addresses@UTFWin@@3IB=_ZN6UTFWin23BiStateEffect_addresses13GetEventFlagsE
    ?GetEventFlags@CascadeEffect_addresses@UTFWin@@3IB=_ZN6UTFWin23CascadeEffect_addresses13GetEventFlagsE
    ?GetEventFlags@GlideEffect_addresses@UTFWin@@3IB=_ZN6UTFWin21GlideEffect_addresses13GetEventFlagsE
    ?GetEventFlags@InflateEffect_addresses@UTFWin@@3IB=_ZN6UTFWin23InflateEffect_addresses13GetEventFlagsE
    ?GetEventFlags@ModulateEffect_addresses@UTFWin@@3IB=_ZN6UTFWin24ModulateEffect_addresses13GetEventFlagsE
    ?GetEventFlags@PerspectiveEffect_addresses@UTFWin@@3IB=_ZN6UTFWin27PerspectiveEffect_addresses13GetEventFlagsE
    ?GetEventFlags@RotateEffect_addresses@UTFWin@@3IB=_ZN6UTFWin22RotateEffect_addresses13GetEventFlagsE
    ?GetEventFlags@SporeTooltipWinProc_addresses@UTFWin@@3IB=_ZN6UTFWin29SporeTooltipWinProc_addresses13GetEventFlagsE
    ?GetEvoPointsToNextBrainLevel@cCreatureGameData_addresses@Simulator@@3IB=_ZN9Simulator27cCreatureGameData_addresses28GetEvoPointsToNextBrainLevelE
    ?GetEvolutionPoints@cCreatureGameData_addresses@Simulator@@3IB=_ZN9Simulator27cCreatureGameData_addresses18GetEvolutionPointsE
    ?GetExtension@cResourceManager_addresses@Resource@@3IB=_ZN8Resource26cResourceManager_addresses12GetExtensionE
    ?GetFactoryList@cResourceManager_addresses@Resource@@3IB=_ZN8Resource26cResourceManager_addresses14GetFactoryListE
    ?GetFactoryType@cPropManager_addresses@App@@3IB=_ZN3App22cPropManager_addresses14GetFactoryTypeE
    ?GetFarPlane@cViewer_addresses@App@@3IB=_ZN3App17cViewer_addresses11GetFarPlaneE
    ?GetFile@DatabasePackedFile_addresses@Resource@@3IB=_ZN8Resource28DatabasePackedFile_addresses7GetFileE
    ?GetFileCount@PFIndexModifiable_addresses@Resource@@3IB=_ZN8Resource27PFIndexModifiable_addresses12GetFileCountE
    ?GetFileInfo@PFIndexModifiable_addresses@Resource@@3IB=_ZN8Resource27PFIndexModifiable_addresses11GetFileInfoE
    ?GetFileKeys@cResourceManager_addresses@Resource@@3IB=_ZN8Resource26cResourceManager_addresses11GetFileKeysE
    ?GetFileName@cResourceManager_addresses@Resource@@3IB=_ZN8Resource26cResourceManager_addresses11GetFileNameE
    ?GetFileNameFromKey@DatabaseDirectoryFiles_addresses@Resource@@3IB=_ZN8Resource32DatabaseDirectoryFiles_addresses18GetFileNameFromKeyE
    ?GetFiles@DatabasePackedFile_addresses@Resource@@3IB=_ZN8Resource28DatabasePackedFile_addresses8GetFilesE
    ?GetFiles@PFIndexModifiable_addresses@Resource@@3IB=_ZN8Resource27PFIndexModifiable_addresses8GetFilesE
    ?GetFillColor@Window_addresses@UTFWin@@3IB=_ZN6UTFWin16Window_addresses12GetFillColorE
    ?GetFlags@Window_addresses@UTFWin@@3IB=_ZN6UTFWin16Window_addresses8GetFlagsE
    ?GetFloat@Property_addresses@App@@3IB=_ZN3App18Property_addresses8GetFloatE
    ?GetFolderPath@Thumbnail_cImportExport_addresses@App@@3IB=_ZN3App33Thumbnail_cImportExport_addresses13GetFolderPathE
    ?GetGameMode@cGameModeManager_addresses@App@@3IB=_ZN3App26cGameModeManager_addresses11GetGameModeE
    ?GetGameModeAt@cGameModeManager_addresses@App@@3IB=_ZN3App26cGameModeManager_addresses13GetGameModeAtE
    ?GetGameType@ModAPI@@YA?AW4GameType@1@XZ=_ZN6ModAPI11GetGameTypeEv
    ?GetGeneralTypeID@cResourceManager_addresses@Resource@@3IB=_ZN8Resource26cResourceManager_addresses16GetGeneralTypeIDE
    ?GetGlobalPropertyList@cPropManager_addresses@App@@3IB=_ZN3App22cPropManager_addresses21GetGlobalPropertyListE
    ?GetGlobalsData@Cell_addresses@Simulator@@3IB=_ZN9Simulator14Cell_addresses14GetGlobalsDataE
    ?GetGraphics2D@UIRenderer_addresses@UTFWin@@3IB=_ZN6UTFWin20UIRenderer_addresses13GetGraphics2DE
    ?GetGravity@cPlanetModel_addresses@Simulator@@3IB=_ZN9Simulator22cPlanetModel_addresses10GetGravityE
    ?GetHeight@cTerrainMapSet_addresses@Terrain@@3IB=_ZN7Terrain24cTerrainMapSet_addresses9GetHeightE
    ?GetHeightAt@cPlanetModel_addresses@Simulator@@3IB=_ZN9Simulator22cPlanetModel_addresses11GetHeightAtE
    ?GetHitFactor@StdDrawable_addresses@UTFWin@@3IB=_ZN6UTFWin21StdDrawable_addresses12GetHitFactorE
    ?GetHitMask@StdDrawable_addresses@UTFWin@@3IB=_ZN6UTFWin21StdDrawable_addresses10GetHitMaskE
    ?GetIDFromName@cPropManager_addresses@App@@3IB=_ZN3App22cPropManager_addresses13GetIDFromNameE
    ?GetIfNotDeleted@cObjectPool__addresses@Simulator@@3IB=_ZN9Simulator22cObjectPool__addresses15GetIfNotDeletedE
    ?GetImage@ComboBoxDrawable_addresses@UTFWin@@3IB=_ZN6UTFWin26ComboBoxDrawable_addresses8GetImageE
    ?GetImage@ImageDrawable_addresses@UTFWin@@3IB=_ZN6UTFWin23ImageDrawable_addresses21GetImageDrawableFlagsE
    ?GetImage@Image_addresses@UTFWin@@3IB=_ZN6UTFWin15Image_addresses8GetImageE
    ?GetImage@StdDrawable_addresses@UTFWin@@3IB=_ZN6UTFWin21StdDrawable_addresses8GetImageE
    ?GetImageDrawableFlags@ImageDrawable_addresses@UTFWin@@3IB=_ZN6UTFWin23ImageDrawable_addresses21GetImageDrawableFlagsE
    ?GetImageKey@cSPAssetDataOTDB_addresses@Sporepedia@@3IB=_ZN10Sporepedia26cSPAssetDataOTDB_addresses11GetImageKeyE
    ?GetInt32@Property_addresses@App@@3IB=_ZN3App18Property_addresses8GetInt32E
    ?GetInterpolationType@BiStateEffect_addresses@UTFWin@@3IB=_ZN6UTFWin23BiStateEffect_addresses20GetInterpolationTypeE
    ?GetInterval@CascadeEffect_addresses@UTFWin@@3IB=_ZN6UTFWin23CascadeEffect_addresses11GetIntervalE
    ?GetItemArea@PalettePageUI_addresses@Palettes@@3IB=_ZN8Palettes23PalettePageUI_addresses11GetItemAreaE
    ?GetKey@PFRecordRead_addresses@Resource@@3IB=_ZN8Resource22PFRecordRead_addresses6GetKeyE
    ?GetKey@PFRecordWrite_addresses@Resource@@3IB=_ZN8Resource23PFRecordWrite_addresses6GetKeyE
    ?GetKey@Property_addresses@App@@3IB=_ZN3App18Property_addresses12GetKeyTypeIDE
    ?GetKeyFromFileName@DatabaseDirectoryFiles_addresses@Resource@@3IB=_ZN8Resource32DatabaseDirectoryFiles_addresses18GetKeyFromFileNameE
    ?GetKeyFromName@cResourceManager_addresses@Resource@@3IB=_ZN8Resource26cResourceManager_addresses14GetKeyFromNameE
    ?GetKeyGroupID@Property_addresses@App@@3IB=_ZN3App18Property_addresses13GetKeyGroupIDE
    ?GetKeyInstanceID@Property_addresses@App@@3IB=_ZN3App18Property_addresses16GetKeyInstanceIDE
    ?GetKeyList@DatabaseDirectoryFiles_addresses@Resource@@3IB=_ZN8Resource32DatabaseDirectoryFiles_addresses10GetKeyListE
    ?GetKeyList@DatabasePackedFile_addresses@Resource@@3IB=_ZN8Resource28DatabasePackedFile_addresses10GetKeyListE
    ?GetKeyTypeID@Property_addresses@App@@3IB=_ZN3App18Property_addresses12GetKeyTypeIDE
    ?GetKeywords@cCheatManager_addresses@App@@3IB=_ZN3App23cCheatManager_addresses11GetKeywordsE
    ?GetLexer@FormatParser_addresses@ArgScript@@3IB=_ZN9ArgScript22FormatParser_addresses8GetLexerE
    ?GetLoadedResource@cResourceManager_addresses@Resource@@3IB=_ZN8Resource26cResourceManager_addresses17GetLoadedResourceE
    ?GetLocation@DatabasePackedFile_addresses@Resource@@3IB=_ZN8Resource28DatabasePackedFile_addresses11GetLocationE
    ?GetMajorVersion@ModAPI@@YAHXZ=_ZN6ModAPI15GetMajorVersionEv
    ?GetMarkerForObject@cScenarioData_addresses@Simulator@@3IB=_ZN9Simulator23cScenarioData_addresses18GetMarkerForObjectE
    ?GetMaterialShader@MaterialShader_addresses@Graphics@@3IB=_ZN8Graphics24MaterialShader_addresses17GetMaterialShaderE
    ?GetMesh@cEditorSkin_addresses@Editors@@3IB=_ZN7Editors21cEditorSkin_addresses7GetMeshE
    ?GetMessageQueue@cMessageManager_addresses@App@@3IB=_ZN3App25cMessageManager_addresses15GetMessageQueueE
    ?GetMessageServer@Canvas_addresses@App@@3IB=_ZN3App16Canvas_addresses16GetMessageServerE
    ?GetMinorVersion@ModAPI@@YAHXZ=_ZN6ModAPI15GetMinorVersionEv
    ?GetMissionByID@cMissionManager_addresses@Simulator@@3IB=_ZN9Simulator25cMissionManager_addresses14GetMissionByIDE
    ?GetMissionTrackColor@cMissionManager_addresses@Simulator@@3IB=_ZN9Simulator25cMissionManager_addresses20GetMissionTrackColorE
    ?GetModeCount@cGameModeManager_addresses@App@@3IB=_ZN3App26cGameModeManager_addresses12GetModeCountE
    ?GetModeIDAt@cGameModeManager_addresses@App@@3IB=_ZN3App26cGameModeManager_addresses11GetModeIDAtE
    ?GetModelKeyForCellResource@Cell_addresses@Simulator@@3IB=_ZN9Simulator14Cell_addresses26GetModelKeyForCellResourceE
    ?GetMonitor@Canvas_addresses@App@@3IB=_ZN3App16Canvas_addresses10GetMonitorE
    ?GetName@PFRecordRead_addresses@Resource@@3IB=_ZN8Resource22PFRecordRead_addresses7GetNameE
    ?GetName@PFRecordWrite_addresses@Resource@@3IB=_ZN8Resource23PFRecordWrite_addresses7GetNameE
    ?GetName@cSPAssetDataOTDB_addresses@Sporepedia@@3IB=_ZN10Sporepedia26cSPAssetDataOTDB_addresses7GetNameE
    ?GetNameFromID@cPropManager_addresses@App@@3IB=_ZN3App22cPropManager_addresses13GetNameFromIDE
    ?GetNameFromKey@cResourceManager_addresses@Resource@@3IB=_ZN8Resource26cResourceManager_addresses14GetNameFromKeyE
    ?GetNameFromPropertyGroupID@cPropManager_addresses@App@@3IB=_ZN3App22cPropManager_addresses26GetNameFromPropertyGroupIDE
    ?GetNearPlane@PerspectiveEffect_addresses@UTFWin@@3IB=_ZN6UTFWin27PerspectiveEffect_addresses12GetNearPlaneE
    ?GetNearPlane@cViewer_addresses@App@@3IB=_ZN3App17cViewer_addresses12GetNearPlaneE
    ?GetNearestCity@cPlanetModel_addresses@Simulator@@3IB=_ZN9Simulator22cPlanetModel_addresses14GetNearestCityE
    ?GetNextAdvectID@Cell_addresses@Simulator@@3IB=_ZN9Simulator14Cell_addresses15GetNextAdvectIDE
    ?GetNextEnvironmentReactionAnimID@EditorPlayMode_addresses@Editors@@3IB=_ZN7Editors24EditorPlayMode_addresses32GetNextEnvironmentReactionAnimIDE
    ?GetNextWinProc@Window_addresses@UTFWin@@3IB=_ZN6UTFWin16Window_addresses14GetNextWinProcE
    ?GetNounCreateMap@Simulator_addresses@@3IB=_ZN19Simulator_addresses16GetNounCreateMapE
    ?GetObjectForMarker@cScenarioData_addresses@Simulator@@3IB=_ZN9Simulator23cScenarioData_addresses18GetObjectForMarkerE
    ?GetObjectType@cScenarioClass_addresses@Simulator@@3IB=_ZN9Simulator24cScenarioClass_addresses13GetObjectTypeE
    ?GetOffset@GlideEffect_addresses@UTFWin@@3IB=_ZN6UTFWin21GlideEffect_addresses9GetOffsetE
    ?GetOpenCount@DatabaseDirectoryFiles_addresses@Resource@@3IB=_ZN8Resource32DatabaseDirectoryFiles_addresses12GetOpenCountE
    ?GetOpenCount@DatabasePackedFile_addresses@Resource@@3IB=_ZN8Resource28DatabasePackedFile_addresses12GetOpenCountE
    ?GetOption@Line_addresses@ArgScript@@3IB=_ZN9ArgScript14Line_addresses14GetOptionRangeE
    ?GetOption@MemoryStream_addresses@IO@@3IB=_ZN2IO22MemoryStream_addresses9GetOptionE
    ?GetOption@cMessageManager_addresses@App@@3IB=_ZN3App25cMessageManager_addresses9GetOptionE
    ?GetOptionRange@Line_addresses@ArgScript@@3IB=_ZN9ArgScript14Line_addresses14GetOptionRangeE
    ?GetOptionalEnum@Line_addresses@ArgScript@@3IB=_ZN9ArgScript14Line_addresses15GetOptionalEnumE
    ?GetOptions@Canvas_addresses@App@@3IB=_ZN3App16Canvas_addresses10GetOptionsE
    ?GetOrientation@cPlanetModel_addresses@Simulator@@3IB=_ZN9Simulator22cPlanetModel_addresses14GetOrientationE
    ?GetPackageForSaveDirectory@AppData_addresses@App@@3IB=_ZN3App17AppData_addresses26GetPackageForSaveDirectoryE
    ?GetParent@Window_addresses@UTFWin@@3IB=_ZN6UTFWin16Window_addresses9GetParentE
    ?GetParentDBPF@PFRecordRead_addresses@Resource@@3IB=_ZN8Resource22PFRecordRead_addresses13GetParentDBPFE
    ?GetParentDBPF@PFRecordWrite_addresses@Resource@@3IB=_ZN8Resource23PFRecordWrite_addresses13GetParentDBPFE
    ?GetParser@FormatParser_addresses@ArgScript@@3IB=_ZN9ArgScript22FormatParser_addresses9GetParserE
    ?GetParser@IBlock_addresses@ArgScript@@3IB=_ZN9ArgScript16IBlock_addresses9GetParserE
    ?GetPath@DatabasePackedFile_addresses@Resource@@3IB=_ZN8Resource28DatabasePackedFile_addresses7GetPathE
    ?GetPath@FileStream_addresses@IO@@3IB=_ZN2IO20FileStream_addresses14GetPathCStringE
    ?GetPathCString@FileStream_addresses@IO@@3IB=_ZN2IO20FileStream_addresses14GetPathCStringE
    ?GetPauseCount@cGameTimeManager_addresses@Simulator@@3IB=_ZN9Simulator26cGameTimeManager_addresses13GetPauseCountE
    ?GetPerihelion@cPlanetRecord_addresses@Simulator@@3IB=_ZN9Simulator23cPlanetRecord_addresses13GetPerihelionE
    ?GetPlanetRecord@cStarManager_addresses@Simulator@@3IB=_ZN9Simulator22cStarManager_addresses15GetPlanetRecordE
    ?GetPlanetRecord@cStarRecord_addresses@Simulator@@3IB=_ZN9Simulator21cStarRecord_addresses15GetPlanetRecordE
    ?GetPlanetRecords@cStarRecord_addresses@Simulator@@3IB=_ZN9Simulator21cStarRecord_addresses16GetPlanetRecordsE
    ?GetPlanetTemperatureType@Simulator_addresses@@3IB=_ZN19Simulator_addresses24GetPlanetTemperatureTypeE
    ?GetPlayerCivilization@cGameNounManager_addresses@Simulator@@3IB=_ZN9Simulator26cGameNounManager_addresses21GetPlayerCivilizationE
    ?GetPlayerEmpire@Simulator_addresses@@3IB=_ZN19Simulator_addresses15GetPlayerEmpireE
    ?GetPlayerEmpireID@Simulator_addresses@@3IB=_ZN19Simulator_addresses17GetPlayerEmpireIDE
    ?GetPosition@Canvas_addresses@App@@3IB=_ZN3App16Canvas_addresses11GetPositionE
    ?GetPosition@FileStream_addresses@IO@@3IB=_ZN2IO20FileStream_addresses11GetPositionE
    ?GetPosition@FixedMemoryStream_addresses@IO@@3IB=_ZN2IO27FixedMemoryStream_addresses11GetPositionE
    ?GetPosition@MemoryStream_addresses@IO@@3IB=_ZN2IO22MemoryStream_addresses11GetPositionE
    ?GetPosition@PFRecordRead_addresses@Resource@@3IB=_ZN8Resource22PFRecordRead_addresses11GetPositionE
    ?GetPosition@PFRecordWrite_addresses@Resource@@3IB=_ZN8Resource23PFRecordWrite_addresses11GetPositionE
    ?GetPosition@StreamBuffer_addresses@IO@@3IB=_ZN2IO22StreamBuffer_addresses11GetPositionE
    ?GetPosition@StreamChild_addresses@IO@@3IB=_ZN2IO21StreamChild_addresses11GetPositionE
    ?GetPosition@StreamNull_addresses@IO@@3IB=_ZN2IO20StreamNull_addresses11GetPositionE
    ?GetPriority@cResourceManager_addresses@Resource@@3IB=_ZN8Resource26cResourceManager_addresses11GetPriorityE
    ?GetPrivateResource@cResourceManager_addresses@Resource@@3IB=_ZN8Resource26cResourceManager_addresses18GetPrivateResourceE
    ?GetProperty@DirectPropertyList_addresses@App@@3IB=_ZN3App28DirectPropertyList_addresses11GetPropertyE
    ?GetProperty@PropertyList_addresses@App@@3IB=_ZN3App22PropertyList_addresses11GetPropertyE
    ?GetPropertyAlt@DirectPropertyList_addresses@App@@3IB=_ZN3App28DirectPropertyList_addresses14GetPropertyAltE
    ?GetPropertyAlt@PropertyList_addresses@App@@3IB=_ZN3App22PropertyList_addresses14GetPropertyAltE
    ?GetPropertyDefinition@cPropManager_addresses@App@@3IB=_ZN3App22cPropManager_addresses21GetPropertyDefinitionE
    ?GetPropertyGroupIDAt@cPropManager_addresses@App@@3IB=_ZN3App22cPropManager_addresses20GetPropertyGroupIDAtE
    ?GetPropertyGroupIDFromName@cPropManager_addresses@App@@3IB=_ZN3App22cPropManager_addresses26GetPropertyGroupIDFromNameE
    ?GetPropertyGroupName@cPropManager_addresses@App@@3IB=_ZN3App22cPropManager_addresses20GetPropertyGroupNameE
    ?GetPropertyGroupsCount@cPropManager_addresses@App@@3IB=_ZN3App22cPropManager_addresses22GetPropertyGroupsCountE
    ?GetPropertyID@cPropManager_addresses@App@@3IB=_ZN3App22cPropManager_addresses13GetPropertyIDE
    ?GetPropertyIDs@DirectPropertyList_addresses@App@@3IB=_ZN3App28DirectPropertyList_addresses14GetPropertyIDsE
    ?GetPropertyIDs@PropertyList_addresses@App@@3IB=_ZN3App22PropertyList_addresses14GetPropertyIDsE
    ?GetPropertyList@EditorCamera_addresses@Editors@@3IB=_ZN7Editors22EditorCamera_addresses15GetPropertyListE
    ?GetPropertyList@cPropManager_addresses@App@@3IB=_ZN3App22cPropManager_addresses15GetPropertyListE
    ?GetPropertyListIDs@cPropManager_addresses@App@@3IB=_ZN3App22cPropManager_addresses18GetPropertyListIDsE
    ?GetPropertyName@cPropManager_addresses@App@@3IB=_ZN3App22cPropManager_addresses15GetPropertyNameE
    ?GetPropertyObject@DirectPropertyList_addresses@App@@3IB=_ZN3App28DirectPropertyList_addresses17GetPropertyObjectE
    ?GetPropertyObject@PropertyList_addresses@App@@3IB=_ZN3App22PropertyList_addresses17GetPropertyObjectE
    ?GetProxyID@ButtonDrawableRadio_addresses@UTFWin@@3IB=_ZN6UTFWin29ButtonDrawableRadio_addresses10GetProxyIDE
    ?GetProxyID@ButtonDrawableStandard_addresses@UTFWin@@3IB=_ZN6UTFWin32ButtonDrawableStandard_addresses10GetProxyIDE
    ?GetProxyID@CascadeEffect_addresses@UTFWin@@3IB=_ZN6UTFWin23CascadeEffect_addresses10GetProxyIDE
    ?GetProxyID@ComboBoxDrawable_addresses@UTFWin@@3IB=_ZN6UTFWin26ComboBoxDrawable_addresses10GetProxyIDE
    ?GetProxyID@DialogDrawable_addresses@UTFWin@@3IB=_ZN6UTFWin24DialogDrawable_addresses10GetProxyIDE
    ?GetProxyID@FadeEffect_addresses@UTFWin@@3IB=_ZN6UTFWin20FadeEffect_addresses10GetProxyIDE
    ?GetProxyID@FrameDrawable_addresses@UTFWin@@3IB=_ZN6UTFWin23FrameDrawable_addresses10GetProxyIDE
    ?GetProxyID@GlideEffect_addresses@UTFWin@@3IB=_ZN6UTFWin21GlideEffect_addresses10GetProxyIDE
    ?GetProxyID@ImageDrawable_addresses@UTFWin@@3IB=_ZN6UTFWin23ImageDrawable_addresses10GetProxyIDE
    ?GetProxyID@Image_addresses@UTFWin@@3IB=_ZN6UTFWin15Image_addresses10GetProxyIDE
    ?GetProxyID@InflateEffect_addresses@UTFWin@@3IB=_ZN6UTFWin23InflateEffect_addresses10GetProxyIDE
    ?GetProxyID@ModulateEffect_addresses@UTFWin@@3IB=_ZN6UTFWin24ModulateEffect_addresses10GetProxyIDE
    ?GetProxyID@PerspectiveEffect_addresses@UTFWin@@3IB=_ZN6UTFWin27PerspectiveEffect_addresses10GetProxyIDE
    ?GetProxyID@ProportionalLayout_addresses@UTFWin@@3IB=_ZN6UTFWin28ProportionalLayout_addresses10GetProxyIDE
    ?GetProxyID@RotateEffect_addresses@UTFWin@@3IB=_ZN6UTFWin22RotateEffect_addresses10GetProxyIDE
    ?GetProxyID@ScrollbarDrawable_addresses@UTFWin@@3IB=_ZN6UTFWin27ScrollbarDrawable_addresses10GetProxyIDE
    ?GetProxyID@SimpleLayout_addresses@UTFWin@@3IB=_ZN6UTFWin22SimpleLayout_addresses10GetProxyIDE
    ?GetProxyID@SliderDrawable_addresses@UTFWin@@3IB=_ZN6UTFWin24SliderDrawable_addresses10GetProxyIDE
    ?GetProxyID@SpinnerDrawable_addresses@UTFWin@@3IB=_ZN6UTFWin25SpinnerDrawable_addresses10GetProxyIDE
    ?GetProxyID@SporeStdDrawableImageInfo_addresses@UTFWin@@3IB=_ZN6UTFWin35SporeStdDrawableImageInfo_addresses10GetProxyIDE
    ?GetProxyID@SporeStdDrawable_addresses@UTFWin@@3IB=_ZN6UTFWin26SporeStdDrawable_addresses10GetProxyIDE
    ?GetProxyID@SporeTooltipWinProc_addresses@UTFWin@@3IB=_ZN6UTFWin29SporeTooltipWinProc_addresses10GetProxyIDE
    ?GetProxyID@StdDrawable_addresses@UTFWin@@3IB=_ZN6UTFWin21StdDrawable_addresses10GetProxyIDE
    ?GetProxyID@TreeNode_addresses@UTFWin@@3IB=_ZN6UTFWin18TreeNode_addresses10GetProxyIDE
    ?GetProxyID@VariableWidthDrawable_addresses@UTFWin@@3IB=_ZN6UTFWin31VariableWidthDrawable_addresses10GetProxyIDE
    ?GetProxyID@Window_addresses@UTFWin@@3IB=_ZN6UTFWin16Window_addresses10GetProxyIDE
    ?GetRWObject@RWHeader_addresses@RenderWare@@3IB=_ZN10RenderWare18RWHeader_addresses11GetRWObjectE
    ?GetRareHasBeenFound@cSpaceTrading_addresses@Simulator@@3IB=_ZN9Simulator23cSpaceTrading_addresses19GetRareHasBeenFoundE
    ?GetRaster@CompiledState_addresses@RenderWare@@3IB=_ZN10RenderWare23CompiledState_addresses9GetRasterE
    ?GetRealArea@Window_addresses@UTFWin@@3IB=_ZN6UTFWin16Window_addresses11GetRealAreaE
    ?GetRealFileKey@cResourceManager_addresses@Resource@@3IB=_ZN8Resource26cResourceManager_addresses14GetRealFileKeyE
    ?GetRecordKeyList2@cResourceManager_addresses@Resource@@3IB=_ZN8Resource26cResourceManager_addresses17GetRecordKeyList2E
    ?GetRecordKeyList@cResourceManager_addresses@Resource@@3IB=_ZN8Resource26cResourceManager_addresses16GetRecordKeyListE
    ?GetRecordTypesFromResourceType@cResourceManager_addresses@Resource@@3IB=_ZN8Resource26cResourceManager_addresses30GetRecordTypesFromResourceTypeE
    ?GetRefCount@DatabaseDirectoryFiles_addresses@Resource@@3IB=_ZN8Resource32DatabaseDirectoryFiles_addresses11GetRefCountE
    ?GetRefCount@DatabasePackedFile_addresses@Resource@@3IB=_ZN8Resource28DatabasePackedFile_addresses11GetRefCountE
    ?GetReferenceCount@DatabasePackedFile_addresses@Resource@@3IB=_ZN8Resource28DatabasePackedFile_addresses17GetReferenceCountE
    ?GetRelationshipEventValue@cRelationshipManager_addresses@Simulator@@3IB=_ZN9Simulator30cRelationshipManager_addresses25GetRelationshipEventValueE
    ?GetResource@cResourceManager_addresses@Resource@@3IB=_ZN8Resource26cResourceManager_addresses11GetResourceE
    ?GetResourceAsync@cResourceManager_addresses@Resource@@3IB=_ZN8Resource26cResourceManager_addresses16GetResourceAsyncE
    ?GetResourceCache@cResourceManager_addresses@Resource@@3IB=_ZN8Resource26cResourceManager_addresses16GetResourceCacheE
    ?GetResourceCaches@cResourceManager_addresses@Resource@@3IB=_ZN8Resource26cResourceManager_addresses17GetResourceCachesE
    ?GetResourceFactories@cResourceManager_addresses@Resource@@3IB=_ZN8Resource26cResourceManager_addresses20GetResourceFactoriesE
    ?GetResourceFactory@cResourceManager_addresses@Resource@@3IB=_ZN8Resource26cResourceManager_addresses18GetResourceFactoryE
    ?GetResourceKeyList@cResourceManager_addresses@Resource@@3IB=_ZN8Resource26cResourceManager_addresses18GetResourceKeyListE
    ?GetRingEffect@cPlanet_addresses@Simulator@@3IB=_ZN9Simulator17cPlanet_addresses13GetRingEffectE
    ?GetRotationAngle@RotateEffect_addresses@UTFWin@@3IB=_ZN6UTFWin22RotateEffect_addresses16GetRotationAngleE
    ?GetRotationAxis@RotateEffect_addresses@UTFWin@@3IB=_ZN6UTFWin22RotateEffect_addresses15GetRotationAxisE
    ?GetSaveArea@Paths_addresses@Resource@@3IB=_ZN8Resource15Paths_addresses11GetSaveAreaE
    ?GetScale@ImageDrawable_addresses@UTFWin@@3IB=_ZN6UTFWin23ImageDrawable_addresses8GetScaleE
    ?GetScale@InflateEffect_addresses@UTFWin@@3IB=_ZN6UTFWin23InflateEffect_addresses8GetScaleE
    ?GetScale@SporeStdDrawable_addresses@UTFWin@@3IB=_ZN6UTFWin26SporeStdDrawable_addresses8GetScaleE
    ?GetScaleArea@StdDrawable_addresses@UTFWin@@3IB=_ZN6UTFWin21StdDrawable_addresses12GetScaleAreaE
    ?GetScaleDifferenceWithPlayer@Cell_addresses@Simulator@@3IB=_ZN9Simulator14Cell_addresses28GetScaleDifferenceWithPlayerE
    ?GetScaleDifferenceWithPlayer@cCellGame_addresses@Cell@Simulator@@3IB=_ZN9Simulator4Cell19cCellGame_addresses28GetScaleDifferenceWithPlayerE
    ?GetScaleFactor@StdDrawable_addresses@UTFWin@@3IB=_ZN6UTFWin21StdDrawable_addresses14GetScaleFactorE
    ?GetScaleType@StdDrawable_addresses@UTFWin@@3IB=_ZN6UTFWin21StdDrawable_addresses12GetScaleTypeE
    ?GetSelectedRigblockPaint@PaletteCategoryUI_addresses@Palettes@@3IB=_ZN8Palettes27PaletteCategoryUI_addresses24GetSelectedRigblockPaintE
    ?GetSelectedRigblockPaint@PaletteUI_addresses@Palettes@@3IB=_ZN8Palettes19PaletteUI_addresses24GetSelectedRigblockPaintE
    ?GetShadeColor@Window_addresses@UTFWin@@3IB=_ZN6UTFWin16Window_addresses13GetShadeColorE
    ?GetShaderDataSize@RenderUtils_addresses@Graphics@@3IB=_ZN8Graphics21RenderUtils_addresses17GetShaderDataSizeE
    ?GetShaderDataSize@Renderer_addresses@Graphics@@3IB=_ZN8Graphics18Renderer_addresses17GetShaderDataSizeE
    ?GetSimDataRTT@cTerrainSphere_addresses@Terrain@@3IB=_ZN7Terrain24cTerrainSphere_addresses13GetSimDataRTTE
    ?GetSimulatorTime_ptr@cGonzagoTimer_addresses@Simulator@@3IB=_ZN9Simulator23cGonzagoTimer_addresses20GetSimulatorTime_ptrE
    ?GetSize@FileStream_addresses@IO@@3IB=_ZN2IO20FileStream_addresses7GetSizeE
    ?GetSize@File_addresses@IO@@3IB=_ZN2IO14File_addresses7GetSizeE
    ?GetSize@FixedMemoryStream_addresses@IO@@3IB=_ZN2IO27FixedMemoryStream_addresses7GetSizeE
    ?GetSize@MemoryStream_addresses@IO@@3IB=_ZN2IO22MemoryStream_addresses7GetSizeE
    ?GetSize@PFRecordRead_addresses@Resource@@3IB=_ZN8Resource22PFRecordRead_addresses7GetSizeE
    ?GetSize@PFRecordWrite_addresses@Resource@@3IB=_ZN8Resource23PFRecordWrite_addresses7GetSizeE
    ?GetSize@StreamBuffer_addresses@IO@@3IB=_ZN2IO22StreamBuffer_addresses7GetSizeE
    ?GetSize@StreamChild_addresses@IO@@3IB=_ZN2IO21StreamChild_addresses7GetSizeE
    ?GetSize@StreamNull_addresses@IO@@3IB=_ZN2IO20StreamNull_addresses7GetSizeE
    ?GetSolarStarMass@Simulator_addresses@@3IB=_ZN19Simulator_addresses16GetSolarStarMassE
    ?GetSolarStarOrbitRadius@Simulator_addresses@@3IB=_ZN19Simulator_addresses23GetSolarStarOrbitRadiusE
    ?GetSolarStarRadius@Simulator_addresses@@3IB=_ZN19Simulator_addresses18GetSolarStarRadiusE
    ?GetSolarStarRotationRate@Simulator_addresses@@3IB=_ZN19Simulator_addresses24GetSolarStarRotationRateE
    ?GetSolarStarTemperature@Simulator_addresses@@3IB=_ZN19Simulator_addresses23GetSolarStarTemperatureE
    ?GetSolarSystem@cStar_addresses@Simulator@@3IB=_ZN9Simulator15cStar_addresses14GetSolarSystemE
    ?GetSpeciesName@cSpeciesProfile_addresses@Simulator@@3IB=_ZN9Simulator25cSpeciesProfile_addresses14GetSpeciesNameE
    ?GetSpeciesProfile@cEmpire_addresses@Simulator@@3IB=_ZN9Simulator17cEmpire_addresses17GetSpeciesProfileE
    ?GetSpeciesProfile@cSpeciesManager_addresses@Editors@@3IB=_ZN7Editors25cSpeciesManager_addresses17GetSpeciesProfileE
    ?GetStarGridPosition@cStarManager_addresses@Simulator@@3IB=_ZN9Simulator22cStarManager_addresses19GetStarGridPositionE
    ?GetState@FileStream_addresses@IO@@3IB=_ZN2IO20FileStream_addresses8GetStateE
    ?GetState@FixedMemoryStream_addresses@IO@@3IB=_ZN2IO27FixedMemoryStream_addresses8GetStateE
    ?GetState@MemoryStream_addresses@IO@@3IB=_ZN2IO22MemoryStream_addresses8GetStateE
    ?GetState@PFRecordRead_addresses@Resource@@3IB=_ZN8Resource22PFRecordRead_addresses8GetStateE
    ?GetState@PFRecordWrite_addresses@Resource@@3IB=_ZN8Resource23PFRecordWrite_addresses8GetStateE
    ?GetState@StreamBuffer_addresses@IO@@3IB=_ZN2IO22StreamBuffer_addresses8GetStateE
    ?GetState@StreamChild_addresses@IO@@3IB=_ZN2IO21StreamChild_addresses8GetStateE
    ?GetState@StreamNull_addresses@IO@@3IB=_ZN2IO20StreamNull_addresses8GetStateE
    ?GetState@Window_addresses@UTFWin@@3IB=_ZN6UTFWin16Window_addresses8GetStateE
    ?GetStatus@cJob_addresses@App@@3IB=_ZN3App14cJob_addresses9GetStatusE
    ?GetStrategy@cSpaceToolData_addresses@Simulator@@3IB=_ZN9Simulator24cSpaceToolData_addresses11GetStrategyE
    ?GetStrategy@cToolManager_addresses@Simulator@@3IB=_ZN9Simulator22cToolManager_addresses11GetStrategyE
    ?GetStream@DatabasePackedFile_addresses@Resource@@3IB=_ZN8Resource28DatabasePackedFile_addresses9GetStreamE
    ?GetStream@PFRecordRead_addresses@Resource@@3IB=_ZN8Resource22PFRecordRead_addresses9GetStreamE
    ?GetStream@PFRecordWrite_addresses@Resource@@3IB=_ZN8Resource23PFRecordWrite_addresses9GetStreamE
    ?GetString16@Property_addresses@App@@3IB=_ZN3App18Property_addresses11GetString16E
    ?GetString8@Property_addresses@App@@3IB=_ZN3App18Property_addresses10GetString8E
    ?GetStyle@Canvas_addresses@App@@3IB=_ZN3App16Canvas_addresses8GetStyleE
    ?GetSupportedTypes@cPropManager_addresses@App@@3IB=_ZN3App22cPropManager_addresses17GetSupportedTypesE
    ?GetSwatchArea@ColorPickerUI_addresses@Palettes@@3IB=_ZN8Palettes23ColorPickerUI_addresses13GetSwatchAreaE
    ?GetTScore@cTerraformingManager_addresses@Simulator@@3IB=_ZN9Simulator30cTerraformingManager_addresses9GetTScoreE
    ?GetTags@cSPAssetDataOTDB_addresses@Sporepedia@@3IB=_ZN10Sporepedia26cSPAssetDataOTDB_addresses7GetTagsE
    ?GetTemperatureScore@cPlanet_addresses@Simulator@@3IB=_ZN9Simulator17cPlanet_addresses19GetTemperatureScoreE
    ?GetTerrainCursor@cGameTerrainCursor_addresses@Simulator@@3IB=_ZN9Simulator28cGameTerrainCursor_addresses16GetTerrainCursorE
    ?GetTexCoords@ButtonDrawableRadio_addresses@UTFWin@@3IB=_ZN6UTFWin29ButtonDrawableRadio_addresses12GetTexCoordsE
    ?GetTexCoords@ButtonDrawableStandard_addresses@UTFWin@@3IB=_ZN6UTFWin32ButtonDrawableStandard_addresses12GetTexCoordsE
    ?GetText@LocalizedString_addresses@@3IB=_ZN25LocalizedString_addresses7GetTextE
    ?GetText@Property_addresses@App@@3IB=_ZN3App18Property_addresses7GetTextE
    ?GetTextFontID@Window_addresses@UTFWin@@3IB=_ZN6UTFWin16Window_addresses13GetTextFontIDE
    ?GetTiling@ImageDrawable_addresses@UTFWin@@3IB=_ZN6UTFWin23ImageDrawable_addresses9GetTilingE
    ?GetTime@BiStateEffect_addresses@UTFWin@@3IB=_ZN6UTFWin23BiStateEffect_addresses7GetTimeE
    ?GetTimeCreated@cSPAssetDataOTDB_addresses@Sporepedia@@3IB=_ZN10Sporepedia26cSPAssetDataOTDB_addresses14GetTimeCreatedE
    ?GetTimeDownloaded@cSPAssetDataOTDB_addresses@Sporepedia@@3IB=_ZN10Sporepedia26cSPAssetDataOTDB_addresses17GetTimeDownloadedE
    ?GetTotalDiskSize@PFIndexModifiable_addresses@Resource@@3IB=_ZN8Resource27PFIndexModifiable_addresses16GetTotalDiskSizeE
    ?GetTraceStream@FormatParser_addresses@ArgScript@@3IB=_ZN9ArgScript22FormatParser_addresses14GetTraceStreamE
    ?GetTribeArchetype@cTribeArchetype_addresses@Simulator@@3IB=_ZN9Simulator25cTribeArchetype_addresses17GetTribeArchetypeE
    ?GetTriggerType@BiStateEffect_addresses@UTFWin@@3IB=_ZN6UTFWin23BiStateEffect_addresses14GetTriggerTypeE
    ?GetType@DatabasePackedFile_addresses@Resource@@3IB=_ZN8Resource28DatabasePackedFile_addresses7GetTypeE
    ?GetType@FileStream_addresses@IO@@3IB=_ZN2IO20FileStream_addresses7GetTypeE
    ?GetType@FixedMemoryStream_addresses@IO@@3IB=_ZN2IO27FixedMemoryStream_addresses7GetTypeE
    ?GetType@MemoryStream_addresses@IO@@3IB=_ZN2IO22MemoryStream_addresses7GetTypeE
    ?GetType@PFRecordRead_addresses@Resource@@3IB=_ZN8Resource22PFRecordRead_addresses7GetTypeE
    ?GetType@PFRecordWrite_addresses@Resource@@3IB=_ZN8Resource23PFRecordWrite_addresses7GetTypeE
    ?GetType@StreamBuffer_addresses@IO@@3IB=_ZN2IO22StreamBuffer_addresses7GetTypeE
    ?GetType@StreamChild_addresses@IO@@3IB=_ZN2IO21StreamChild_addresses7GetTypeE
    ?GetType@StreamNull_addresses@IO@@3IB=_ZN2IO20StreamNull_addresses7GetTypeE
    ?GetType@cPropManager_addresses@App@@3IB=_ZN3App22cPropManager_addresses7GetTypeE
    ?GetTypeFromTypename@DatabaseDirectoryFiles_addresses@Resource@@3IB=_ZN8Resource32DatabaseDirectoryFiles_addresses19GetTypeFromTypenameE
    ?GetTypeFromTypename@cResourceManager_addresses@Resource@@3IB=_ZN8Resource26cResourceManager_addresses19GetTypeFromTypenameE
    ?GetTypeID@cResourceManager_addresses@Resource@@3IB=_ZN8Resource26cResourceManager_addresses9GetTypeIDE
    ?GetTypeMapping@cResourceManager_addresses@Resource@@3IB=_ZN8Resource26cResourceManager_addresses14GetTypeMappingE
    ?GetTypeRemap@cResourceManager_addresses@Resource@@3IB=_ZN8Resource26cResourceManager_addresses12GetTypeRemapE
    ?GetTypenameFromType@DatabaseDirectoryFiles_addresses@Resource@@3IB=_ZN8Resource32DatabaseDirectoryFiles_addresses19GetTypenameFromTypeE
    ?GetTypenameFromType@cResourceManager_addresses@Resource@@3IB=_ZN8Resource26cResourceManager_addresses19GetTypenameFromTypeE
    ?GetUInt32@Property_addresses@App@@3IB=_ZN3App18Property_addresses9GetUInt32E
    ?GetUnlockableTool@cPlayerInventory_addresses@Simulator@@3IB=_ZN9Simulator26cPlayerInventory_addresses17GetUnlockableToolE
    ?GetValue@Property_addresses@App@@3IB=_ZN3App18Property_addresses11GetValueKeyE
    ?GetValue@cArithmeticaResource_addresses@App@@3IB=_ZN3App30cArithmeticaResource_addresses8GetValueE
    ?GetValueBBox@Property_addresses@App@@3IB=_ZN3App18Property_addresses12GetValueBBoxE
    ?GetValueBool@Property_addresses@App@@3IB=_ZN3App18Property_addresses12GetValueBoolE
    ?GetValueChar@Property_addresses@App@@3IB=_ZN3App18Property_addresses12GetValueCharE
    ?GetValueColorRGB@Property_addresses@App@@3IB=_ZN3App18Property_addresses16GetValueColorRGBE
    ?GetValueColorRGBA@Property_addresses@App@@3IB=_ZN3App18Property_addresses17GetValueColorRGBAE
    ?GetValueDouble@Property_addresses@App@@3IB=_ZN3App18Property_addresses14GetValueDoubleE
    ?GetValueFlags@Property_addresses@App@@3IB=_ZN3App18Property_addresses13GetValueFlagsE
    ?GetValueFloat@Property_addresses@App@@3IB=_ZN3App18Property_addresses13GetValueFloatE
    ?GetValueInt16@Property_addresses@App@@3IB=_ZN3App18Property_addresses13GetValueInt16E
    ?GetValueInt32@Property_addresses@App@@3IB=_ZN3App18Property_addresses13GetValueInt32E
    ?GetValueInt64@Property_addresses@App@@3IB=_ZN3App18Property_addresses13GetValueInt64E
    ?GetValueInt8@Property_addresses@App@@3IB=_ZN3App18Property_addresses12GetValueInt8E
    ?GetValueKey@Property_addresses@App@@3IB=_ZN3App18Property_addresses11GetValueKeyE
    ?GetValueString16@Property_addresses@App@@3IB=_ZN3App18Property_addresses16GetValueString16E
    ?GetValueString8@Property_addresses@App@@3IB=_ZN3App18Property_addresses15GetValueString8E
    ?GetValueText@Property_addresses@App@@3IB=_ZN3App18Property_addresses12GetValueTextE
    ?GetValueTransform@Property_addresses@App@@3IB=_ZN3App18Property_addresses17GetValueTransformE
    ?GetValueUInt16@Property_addresses@App@@3IB=_ZN3App18Property_addresses14GetValueUInt16E
    ?GetValueUInt32@Property_addresses@App@@3IB=_ZN3App18Property_addresses14GetValueUInt32E
    ?GetValueUInt64@Property_addresses@App@@3IB=_ZN3App18Property_addresses14GetValueUInt64E
    ?GetValueUInt8@Property_addresses@App@@3IB=_ZN3App18Property_addresses13GetValueUInt8E
    ?GetValueVector2@Property_addresses@App@@3IB=_ZN3App18Property_addresses15GetValueVector2E
    ?GetValueVector3@Property_addresses@App@@3IB=_ZN3App18Property_addresses15GetValueVector3E
    ?GetValueVector4@Property_addresses@App@@3IB=_ZN3App18Property_addresses15GetValueVector4E
    ?GetValueWChar@Property_addresses@App@@3IB=_ZN3App18Property_addresses13GetValueWCharE
    ?GetVariable@FormatParser_addresses@ArgScript@@3IB=_ZN9ArgScript22FormatParser_addresses11GetVariableE
    ?GetVector2@Property_addresses@App@@3IB=_ZN3App18Property_addresses10GetVector2E
    ?GetVector3@Property_addresses@App@@3IB=_ZN3App18Property_addresses10GetVector3E
    ?GetVector4@Property_addresses@App@@3IB=_ZN3App18Property_addresses10GetVector4E
    ?GetVersion@FormatParser_addresses@ArgScript@@3IB=_ZN9ArgScript22FormatParser_addresses10GetVersionE
    ?GetViewTransform@cViewer_addresses@App@@3IB=_ZN3App17cViewer_addresses16GetViewTransformE
    ?GetViewer@cCameraManager_addresses@App@@3IB=_ZN3App24cCameraManager_addresses9GetViewerE
    ?GetViewer@cGameModeManager_addresses@App@@3IB=_ZN3App26cGameModeManager_addresses9GetViewerE
    ?GetWindow@Canvas_addresses@App@@3IB=_ZN3App16Canvas_addresses9GetWindowE
    ?GetWindowManager@Window_addresses@UTFWin@@3IB=_ZN6UTFWin16Window_addresses16GetWindowManagerE
    ?GoalCards_ptr@Cell_addresses@Simulator@@3IB=_ZN9Simulator14Cell_addresses13GoalCards_ptrE
    ?HandleCivCommAction@cCommManager_addresses@Simulator@@3IB=_ZN9Simulator22cCommManager_addresses19HandleCivCommActionE
    ?HandleMessage@AdvancedItemViewer_addresses@Palettes@@3IB=_ZN8Palettes28AdvancedItemViewer_addresses13HandleMessageE
    ?HandleMessage@EditorNamePanel_addresses@UI@@3IB=_ZN2UI25EditorNamePanel_addresses13HandleMessageE
    ?HandleMessage@EditorUI_addresses@Editors@@3IB=_ZN7Editors18EditorUI_addresses13HandleMessageE
    ?HandleMessage@PaletteCategoryUI_addresses@Palettes@@3IB=_ZN8Palettes27PaletteCategoryUI_addresses13HandleMessageE
    ?HandleMessage@cCameraManager_addresses@App@@3IB=_ZN3App24cCameraManager_addresses13HandleMessageE
    ?HandleMessage@cCellModeStrategy_addresses@App@@3IB=_ZN3App27cCellModeStrategy_addresses13HandleMessageE
    ?HandleMessage@cEditor_addresses@Editors@@3IB=_ZN7Editors17cEditor_addresses13HandleMessageE
    ?HandleMessage@cGameModeManager_addresses@App@@3IB=_ZN3App26cGameModeManager_addresses13HandleMessageE
    ?HandleMessage@cMouseCamera_addresses@App@@3IB=_ZN3App22cMouseCamera_addresses13HandleMessageE
    ?HandleMessage@cPropManager_addresses@App@@3IB=_ZN3App22cPropManager_addresses13HandleMessageE
    ?HandleSpaceCommAction@cCommManager_addresses@Simulator@@3IB=_ZN9Simulator22cCommManager_addresses21HandleSpaceCommActionE
    ?HandleUIButton@EditorPlayMode_addresses@Editors@@3IB=_ZN7Editors24EditorPlayMode_addresses14HandleUIButtonE
    ?HandleUIButton@PlayModeBackgrounds_addresses@Editors@@3IB=_ZN7Editors29PlayModeBackgrounds_addresses14HandleUIButtonE
    ?HandleUIMessage@AdvancedItemViewer_addresses@Palettes@@3IB=_ZN8Palettes28AdvancedItemViewer_addresses15HandleUIMessageE
    ?HandleUIMessage@BiStateEffect_addresses@UTFWin@@3IB=_ZN6UTFWin23BiStateEffect_addresses15HandleUIMessageE
    ?HandleUIMessage@CascadeEffect_addresses@UTFWin@@3IB=_ZN6UTFWin23CascadeEffect_addresses15HandleUIMessageE
    ?HandleUIMessage@ColorSwatchUI_addresses@Palettes@@3IB=_ZN8Palettes23ColorSwatchUI_addresses15HandleUIMessageE
    ?HandleUIMessage@EditorNamePanel_addresses@UI@@3IB=_ZN2UI25EditorNamePanel_addresses15HandleUIMessageE
    ?HandleUIMessage@EditorUI_addresses@Editors@@3IB=_ZN7Editors18EditorUI_addresses15HandleUIMessageE
    ?HandleUIMessage@GlideEffect_addresses@UTFWin@@3IB=_ZN6UTFWin21GlideEffect_addresses15HandleUIMessageE
    ?HandleUIMessage@InflateEffect_addresses@UTFWin@@3IB=_ZN6UTFWin23InflateEffect_addresses15HandleUIMessageE
    ?HandleUIMessage@InteractiveWinProc_addresses@UTFWin@@3IB=_ZN6UTFWin28InteractiveWinProc_addresses15HandleUIMessageE
    ?HandleUIMessage@ModulateEffect_addresses@UTFWin@@3IB=_ZN6UTFWin24ModulateEffect_addresses15HandleUIMessageE
    ?HandleUIMessage@PageArrowsUI_addresses@Palettes@@3IB=_ZN8Palettes22PageArrowsUI_addresses15HandleUIMessageE
    ?HandleUIMessage@PaletteCategoryUI_addresses@Palettes@@3IB=_ZN8Palettes27PaletteCategoryUI_addresses15HandleUIMessageE
    ?HandleUIMessage@PaletteUI_addresses@Palettes@@3IB=_ZN8Palettes19PaletteUI_addresses15HandleUIMessageE
    ?HandleUIMessage@PerspectiveEffect_addresses@UTFWin@@3IB=_ZN6UTFWin27PerspectiveEffect_addresses15HandleUIMessageE
    ?HandleUIMessage@PlayModeUI_addresses@Editors@@3IB=_ZN7Editors20PlayModeUI_addresses15HandleUIMessageE
    ?HandleUIMessage@RotateEffect_addresses@UTFWin@@3IB=_ZN6UTFWin22RotateEffect_addresses15HandleUIMessageE
    ?HandleUIMessage@SporeTooltipWinProc_addresses@UTFWin@@3IB=_ZN6UTFWin29SporeTooltipWinProc_addresses15HandleUIMessageE
    ?HandleUIMessage@StandardItemUI_addresses@Palettes@@3IB=_ZN8Palettes24StandardItemUI_addresses15HandleUIMessageE
    ?HasCategory@PaletteCategory_addresses@Palettes@@3IB=_ZN8Palettes25PaletteCategory_addresses11HasCategoryE
    ?HasDefinition@FormatParser_addresses@ArgScript@@3IB=_ZN9ArgScript22FormatParser_addresses13HasDefinitionE
    ?HasFinishedPainting@cEditorSkin_addresses@Editors@@3IB=_ZN7Editors21cEditorSkin_addresses19HasFinishedPaintingE
    ?HasFlag@Line_addresses@ArgScript@@3IB=_ZN9ArgScript14Line_addresses7HasFlagE
    ?HasMissionsAvailable@cMissionManager_addresses@Simulator@@3IB=_ZN9Simulator25cMissionManager_addresses20HasMissionsAvailableE
    ?HasName@cSPAssetDataOTDB_addresses@Sporepedia@@3IB=_ZN10Sporepedia26cSPAssetDataOTDB_addresses7HasNameE
    ?HasNext@PaletteIterator_addresses@Palettes@@3IB=_ZN8Palettes25PaletteIterator_addresses7HasNextE
    ?HasParser@FormatParser_addresses@ArgScript@@3IB=_ZN9ArgScript22FormatParser_addresses9HasParserE
    ?HasProperty@DirectPropertyList_addresses@App@@3IB=_ZN3App28DirectPropertyList_addresses11HasPropertyE
    ?HasProperty@PropertyList_addresses@App@@3IB=_ZN3App22PropertyList_addresses11HasPropertyE
    ?HasPropertyList@cPropManager_addresses@App@@3IB=_ZN3App22cPropManager_addresses15HasPropertyListE
    ?HasSystemCursor@Canvas_addresses@App@@3IB=_ZN3App16Canvas_addresses15HasSystemCursorE
    ?HasTradeRoute@cSpaceTradeRouteManager_addresses@Simulator@@3IB=_ZN9Simulator33cSpaceTradeRouteManager_addresses13HasTradeRouteE
    ?Hide@ColorSwatchUI_addresses@Palettes@@3IB=_ZN8Palettes23ColorSwatchUI_addresses4HideE
    ?HideEvent@cUIEventLog_addresses@Simulator@@3IB=_ZN9Simulator21cUIEventLog_addresses9HideEventE
    ?HookWindows@cAppSystem_addresses@App@@3IB=_ZN3App20cAppSystem_addresses11HookWindowsE
    ?ISimulatorSerializable_func18h@cGameData_addresses@Simulator@@3IB=_ZN9Simulator19cGameData_addresses30ISimulatorSerializable_func18hE
    ?IllegalCharacters_ptr@ContentValidation_addresses@Editors@@3IB=_ZN7Editors27ContentValidation_addresses21IllegalCharacters_ptrE
    ?ImportPNG@Thumbnail_cImportExport_addresses@App@@3IB=_ZN3App33Thumbnail_cImportExport_addresses9ImportPNGE
    ?Init@Canvas_addresses@App@@3IB=_ZN3App16Canvas_addresses4InitE
    ?Init@PaletteIterator_addresses@Palettes@@3IB=_ZN8Palettes25PaletteIterator_addresses4InitE
    ?Init@cAchievementsManager_addresses@Pollinator@@3IB=_ZN10Pollinator30cAchievementsManager_addresses4InitE
    ?Init@cAppSystem_addresses@App@@3IB=_ZN3App20cAppSystem_addresses11InitPluginsE
    ?Init@cSporeApp_addresses@App@@3IB=_ZN3App19cSporeApp_addresses4InitE
    ?InitGraphics@cAppSystem_addresses@App@@3IB=_ZN3App20cAppSystem_addresses12InitGraphicsE
    ?InitPlugins@cAppSystem_addresses@App@@3IB=_ZN3App20cAppSystem_addresses11InitPluginsE
    ?Initialize@AdvancedItemViewer_addresses@Palettes@@3IB=_ZN8Palettes28AdvancedItemViewer_addresses10InitializeE
    ?Initialize@EditorCamera_addresses@Editors@@3IB=_ZN7Editors22EditorCamera_addresses10InitializeE
    ?Initialize@EditorNamePanel_addresses@UI@@3IB=_ZN2UI25EditorNamePanel_addresses10InitializeE
    ?Initialize@FormatParser_addresses@ArgScript@@3IB=_ZN9ArgScript22FormatParser_addresses10InitializeE
    ?Initialize@GlobalGGEUI_addresses@GalaxyGameEntry@@3IB=_ZN15GalaxyGameEntry21GlobalGGEUI_addresses10InitializeE
    ?Initialize@MaterialShader_addresses@Graphics@@3IB=_ZN8Graphics24MaterialShader_addresses10InitializeE
    ?Initialize@Window_addresses@UTFWin@@3IB=_ZN6UTFWin16Window_addresses10InitializeE
    ?Initialize@cCameraManager_addresses@App@@3IB=_ZN3App24cCameraManager_addresses10InitializeE
    ?Initialize@cCellGFX_addresses@Cell@Simulator@@3IB=_ZN9Simulator4Cell18cCellGFX_addresses10InitializeE
    ?Initialize@cCellGame_addresses@Cell@Simulator@@3IB=_ZN9Simulator4Cell19cCellGame_addresses10InitializeE
    ?Initialize@cCellModeStrategy_addresses@App@@3IB=_ZN3App27cCellModeStrategy_addresses10InitializeE
    ?Initialize@cCheatManager_addresses@App@@3IB=_ZN3App23cCheatManager_addresses10InitializeE
    ?Initialize@cEditor_addresses@Editors@@3IB=_ZN7Editors17cEditor_addresses10InitializeE
    ?Initialize@cGameDataUFO_addresses@Simulator@@3IB=_ZN9Simulator22cGameDataUFO_addresses10InitializeE
    ?Initialize@cGameModeManager_addresses@App@@3IB=_ZN3App26cGameModeManager_addresses10InitializeE
    ?Initialize@cMessageManager_addresses@App@@3IB=_ZN3App25cMessageManager_addresses10InitializeE
    ?Initialize@cMouseCamera_addresses@App@@3IB=_ZN3App22cMouseCamera_addresses10InitializeE
    ?Initialize@cObjectPool__addresses@Simulator@@3IB=_ZN9Simulator22cObjectPool__addresses10InitializeE
    ?Initialize@cPropManager_addresses@App@@3IB=_ZN3App22cPropManager_addresses10InitializeE
    ?Initialize@cResourceManager_addresses@Resource@@3IB=_ZN8Resource26cResourceManager_addresses10InitializeE
    ?Initialize@cSPUITextZoom_addresses@UI@@3IB=_ZN2UI23cSPUITextZoom_addresses10InitializeE
    ?Initialize@cScenarioData_addresses@Simulator@@3IB=_ZN9Simulator23cScenarioData_addresses10InitializeE
    ?Initialize@cScenarioPlayMode_addresses@Simulator@@3IB=_ZN9Simulator27cScenarioPlayMode_addresses10InitializeE
    ?Initialize@cSkinPainterJob_addresses@Skinner@@3IB=_ZN7Skinner25cSkinPainterJob_addresses10InitializeE
    ?Initialize@cSkinPainterPipeline_addresses@Skinner@@3IB=_ZN7Skinner30cSkinPainterPipeline_addresses10InitializeE
    ?Initialize@cTerrainSphereQuad_addresses@Terrain@@3IB=_ZN7Terrain28cTerrainSphereQuad_addresses10InitializeE
    ?Initialize@cViewer_addresses@App@@3IB=_ZN3App17cViewer_addresses10InitializeE
    ?InitializeHoleTable@DatabasePackedFile_addresses@Resource@@3IB=_ZN8Resource28DatabasePackedFile_addresses19InitializeHoleTableE
    ?InitializeInternal@cSpaceGfx_addresses@Simulator@@3IB=_ZN9Simulator19cSpaceGfx_addresses18InitializeInternalE
    ?InitializeModes@cGameModeManager_addresses@App@@3IB=_ZN3App26cGameModeManager_addresses15InitializeModesE
    ?InitializeSlots@cCommunityLayout_addresses@Simulator@@3IB=_ZN9Simulator26cCommunityLayout_addresses15InitializeSlotsE
    ?InitializeUI@GlobalGGEUI_addresses@GalaxyGameEntry@@3IB=_ZN15GalaxyGameEntry21GlobalGGEUI_addresses12InitializeUIE
    ?InitializeViewerCamera@ItemViewer_addresses@Palettes@@3IB=_ZN8Palettes20ItemViewer_addresses22InitializeViewerCameraE
    ?InstanceEffectOnCell@cCellGFX_addresses@Cell@Simulator@@3IB=_ZN9Simulator4Cell18cCellGFX_addresses20InstanceEffectOnCellE
    ?Invalidate@Window_addresses@UTFWin@@3IB=_ZN6UTFWin16Window_addresses10InvalidateE
    ?InvalidateTransform@Window_addresses@UTFWin@@3IB=_ZN6UTFWin16Window_addresses19InvalidateTransformE
    ?IsAboveCity@cCity_addresses@Simulator@@3IB=_ZN9Simulator15cCity_addresses11IsAboveCityE
    ?IsActive@Canvas_addresses@App@@3IB=_ZN3App16Canvas_addresses8IsActiveE
    ?IsAllied2@cRelationshipManager_addresses@Simulator@@3IB=_ZN9Simulator30cRelationshipManager_addresses9IsAllied2E
    ?IsAllied@cRelationshipManager_addresses@Simulator@@3IB=_ZN9Simulator30cRelationshipManager_addresses8IsAlliedE
    ?IsAncestorOf@Window_addresses@UTFWin@@3IB=_ZN6UTFWin16Window_addresses12IsAncestorOfE
    ?IsAtWar2@cRelationshipManager_addresses@Simulator@@3IB=_ZN9Simulator30cRelationshipManager_addresses8IsAtWar2E
    ?IsAtWar@cRelationshipManager_addresses@Simulator@@3IB=_ZN9Simulator30cRelationshipManager_addresses7IsAtWarE
    ?IsBinaryStar@Simulator_addresses@@3IB=_ZN19Simulator_addresses12IsBinaryStarE
    ?IsBinaryStar@cStar_addresses@Simulator@@3IB=_ZN9Simulator15cStar_addresses12IsBinaryStarE
    ?IsBlackBackground@PlayModeBackgrounds_addresses@Editors@@3IB=_ZN7Editors29PlayModeBackgrounds_addresses17IsBlackBackgroundE
    ?IsBoostEnabled@cAppSystem_addresses@App@@3IB=_ZN3App20cAppSystem_addresses14IsBoostEnabledE
    ?IsColliding@ButtonDrawableRadio_addresses@UTFWin@@3IB=_ZN6UTFWin29ButtonDrawableRadio_addresses11IsCollidingE
    ?IsColliding@ButtonDrawableStandard_addresses@UTFWin@@3IB=_ZN6UTFWin32ButtonDrawableStandard_addresses11IsCollidingE
    ?IsColliding@ComboBoxDrawable_addresses@UTFWin@@3IB=_ZN6UTFWin26ComboBoxDrawable_addresses11IsCollidingE
    ?IsColliding@DialogDrawable_addresses@UTFWin@@3IB=_ZN6UTFWin24DialogDrawable_addresses11IsCollidingE
    ?IsColliding@FrameDrawable_addresses@UTFWin@@3IB=_ZN6UTFWin23FrameDrawable_addresses11IsCollidingE
    ?IsColliding@ImageDrawable_addresses@UTFWin@@3IB=_ZN6UTFWin23ImageDrawable_addresses11IsCollidingE
    ?IsColliding@ScrollbarDrawable_addresses@UTFWin@@3IB=_ZN6UTFWin27ScrollbarDrawable_addresses11IsCollidingE
    ?IsColliding@SliderDrawable_addresses@UTFWin@@3IB=_ZN6UTFWin24SliderDrawable_addresses11IsCollidingE
    ?IsColliding@SpinnerDrawable_addresses@UTFWin@@3IB=_ZN6UTFWin25SpinnerDrawable_addresses11IsCollidingE
    ?IsColliding@SporeStdDrawable_addresses@UTFWin@@3IB=_ZN6UTFWin26SporeStdDrawable_addresses11IsCollidingE
    ?IsColliding@StdDrawable_addresses@UTFWin@@3IB=_ZN6UTFWin21StdDrawable_addresses11IsCollidingE
    ?IsColliding@VariableWidthDrawable_addresses@UTFWin@@3IB=_ZN6UTFWin31VariableWidthDrawable_addresses11IsCollidingE
    ?IsCommScreenActive@cCommManager_addresses@Simulator@@3IB=_ZN9Simulator22cCommManager_addresses18IsCommScreenActiveE
    ?IsConsumible@cScenarioClass_addresses@Simulator@@3IB=_ZN9Simulator24cScenarioClass_addresses12IsConsumibleE
    ?IsDatabaseRegistered@cResourceManager_addresses@Resource@@3IB=_ZN8Resource26cResourceManager_addresses20IsDatabaseRegisteredE
    ?IsDestroyed@cGameData_addresses@Simulator@@3IB=_ZN9Simulator19cGameData_addresses11IsDestroyedE
    ?IsEditable@cSPAssetDataOTDB_addresses@Sporepedia@@3IB=_ZN10Sporepedia26cSPAssetDataOTDB_addresses10IsEditableE
    ?IsEmpty@PFIndexModifiable_addresses@Resource@@3IB=_ZN8Resource27PFIndexModifiable_addresses7IsEmptyE
    ?IsFullscreen@Canvas_addresses@App@@3IB=_ZN3App16Canvas_addresses12IsFullscreenE
    ?IsInWater@cPlanetModel_addresses@Simulator@@3IB=_ZN9Simulator22cPlanetModel_addresses9IsInWaterE
    ?IsMaximized@Canvas_addresses@App@@3IB=_ZN3App16Canvas_addresses11IsMaximizedE
    ?IsMinimized@Canvas_addresses@App@@3IB=_ZN3App16Canvas_addresses11IsMinimizedE
    ?IsMouseButtonDown@GameInput_addresses@@3IB=_ZN19GameInput_addresses17IsMouseButtonDownE
    ?IsNotStarOrBinaryStar@Simulator_addresses@@3IB=_ZN19Simulator_addresses21IsNotStarOrBinaryStarE
    ?IsOutside@AdvancedItemViewer_addresses@Palettes@@3IB=_ZN8Palettes28AdvancedItemViewer_addresses9IsOutsideE
    ?IsPainting@cEditorSkin_addresses@Editors@@3IB=_ZN7Editors21cEditorSkin_addresses10IsPaintingE
    ?IsPaused@cAppSystem_addresses@App@@3IB=_ZN3App20cAppSystem_addresses8IsPausedE
    ?IsRare@cSpaceTrading_addresses@Simulator@@3IB=_ZN9Simulator23cSpaceTrading_addresses6IsRareE
    ?IsReadyForWrite@DatabasePackedFile_addresses@Resource@@3IB=_ZN8Resource28DatabasePackedFile_addresses15IsReadyForWriteE
    ?IsShareable@cSPAssetDataOTDB_addresses@Sporepedia@@3IB=_ZN10Sporepedia26cSPAssetDataOTDB_addresses11IsShareableE
    ?IsShared@cSPAssetDataOTDB_addresses@Sporepedia@@3IB=_ZN10Sporepedia26cSPAssetDataOTDB_addresses8IsSharedE
    ?IsStarOrBinaryStar@cStar_addresses@Simulator@@3IB=_ZN9Simulator15cStar_addresses18IsStarOrBinaryStarE
    ?IsValid@StandardFileFilter_addresses@Resource@@3IB=_ZN8Resource28StandardFileFilter_addresses7IsValidE
    ?IsValid@cPropManager_addresses@App@@3IB=_ZN3App22cPropManager_addresses7IsValidE
    ?IsValidHeader@DatabasePackedFile_addresses@Resource@@3IB=_ZN8Resource28DatabasePackedFile_addresses13IsValidHeaderE
    ?IsVisible@Canvas_addresses@App@@3IB=_ZN3App16Canvas_addresses9IsVisibleE
    ?IsVisible@UILayout_addresses@UTFWin@@3IB=_ZN6UTFWin18UILayout_addresses9IsVisibleE
    ?Iterate@cObjectPool__addresses@Simulator@@3IB=_ZN9Simulator22cObjectPool__addresses7IterateE
    ?JumpToAct@cScenarioPlayMode_addresses@Simulator@@3IB=_ZN9Simulator27cScenarioPlayMode_addresses9JumpToActE
    ?LaunchDefaultToolProjectile@Simulator_addresses@@3IB=_ZN19Simulator_addresses27LaunchDefaultToolProjectileE
    ?LaunchProjectile@cArtilleryProjectile_addresses@Simulator@@3IB=_ZN9Simulator30cArtilleryProjectile_addresses16LaunchProjectileE
    ?LaunchProjectile@cCulturalProjectile_addresses@Simulator@@3IB=_ZN9Simulator29cCulturalProjectile_addresses16LaunchProjectileE
    ?LaunchProjectile@cFlakProjectile_addresses@Simulator@@3IB=_ZN9Simulator25cFlakProjectile_addresses16LaunchProjectileE
    ?LaunchProjectile@cResourceProjectile_addresses@Simulator@@3IB=_ZN9Simulator29cResourceProjectile_addresses16LaunchProjectileE
    ?LaunchProjectile@cSpaceDefenseMissile_addresses@Simulator@@3IB=_ZN9Simulator30cSpaceDefenseMissile_addresses16LaunchProjectileE
    ?LayoutPagePanel@PaletteCategoryUI_addresses@Palettes@@3IB=_ZN8Palettes27PaletteCategoryUI_addresses15LayoutPagePanelE
    ?LightingWorld_ptr@Simulator_addresses@@3IB=_ZN19Simulator_addresses17LightingWorld_ptrE
    ?Load@AdvancedItemViewer_addresses@Palettes@@3IB=_ZN8Palettes28AdvancedItemViewer_addresses4LoadE
    ?Load@ColorPickerUI_addresses@Palettes@@3IB=_ZN8Palettes23ColorPickerUI_addresses4LoadE
    ?Load@ColorSwatchUI_addresses@Palettes@@3IB=_ZN8Palettes23ColorSwatchUI_addresses4LoadE
    ?Load@CompiledState_addresses@RenderWare@@3IB=_ZN10RenderWare23CompiledState_addresses4LoadE
    ?Load@DatabasePackedFile_addresses@Resource@@3IB=_ZN8Resource28DatabasePackedFile_addresses4LoadE
    ?Load@EditorModel_addresses@Editors@@3IB=_ZN7Editors21EditorModel_addresses4LoadE
    ?Load@EditorPlayMode_addresses@Editors@@3IB=_ZN7Editors24EditorPlayMode_addresses4LoadE
    ?Load@EditorUI_addresses@Editors@@3IB=_ZN7Editors18EditorUI_addresses4LoadE
    ?Load@PageArrowsUI_addresses@Palettes@@3IB=_ZN8Palettes22PageArrowsUI_addresses4LoadE
    ?Load@PaletteCategoryUI_addresses@Palettes@@3IB=_ZN8Palettes27PaletteCategoryUI_addresses4LoadE
    ?Load@PaletteItem_addresses@Palettes@@3IB=_ZN8Palettes21PaletteItem_addresses4LoadE
    ?Load@PalettePageUI_addresses@Palettes@@3IB=_ZN8Palettes23PalettePageUI_addresses4LoadE
    ?Load@PalettePage_addresses@Palettes@@3IB=_ZN8Palettes21PalettePage_addresses4LoadE
    ?Load@PaletteUI_addresses@Palettes@@3IB=_ZN8Palettes19PaletteUI_addresses4LoadE
    ?Load@PlayModeBackgrounds_addresses@Editors@@3IB=_ZN7Editors29PlayModeBackgrounds_addresses18LoadBackgroudFilesE
    ?Load@ShaderBuilder_addresses@Graphics@@3IB=_ZN8Graphics23ShaderBuilder_addresses4LoadE
    ?Load@SpaceGameUI_addresses@UI@@3IB=_ZN2UI21SpaceGameUI_addresses4LoadE
    ?Load@StandardShader_addresses@Graphics@@3IB=_ZN8Graphics24StandardShader_addresses4LoadE
    ?Load@UILayout_addresses@UTFWin@@3IB=_ZN6UTFWin18UILayout_addresses10LoadByNameE
    ?Load@cArithmeticaResource_addresses@App@@3IB=_ZN3App30cArithmeticaResource_addresses4LoadE
    ?Load@cCellUI_addresses@Cell@Simulator@@3IB=_ZN9Simulator4Cell17cCellUI_addresses4LoadE
    ?Load@cCursorManager_addresses@UTFWin@@3IB=_ZN6UTFWin24cCursorManager_addresses4LoadE
    ?Load@cSolarSystem_addresses@Simulator@@3IB=_ZN9Simulator22cSolarSystem_addresses13LoadAsteroidsE
    ?Load@cVehicle_addresses@Simulator@@3IB=_ZN9Simulator18cVehicle_addresses4LoadE
    ?LoadAsteroids@cSolarSystem_addresses@Simulator@@3IB=_ZN9Simulator22cSolarSystem_addresses13LoadAsteroidsE
    ?LoadBackgroudFiles@PlayModeBackgrounds_addresses@Editors@@3IB=_ZN7Editors29PlayModeBackgrounds_addresses18LoadBackgroudFilesE
    ?LoadBinaryStar@cSolarSystem_addresses@Simulator@@3IB=_ZN9Simulator22cSolarSystem_addresses14LoadBinaryStarE
    ?LoadByName@UILayout_addresses@UTFWin@@3IB=_ZN6UTFWin18UILayout_addresses10LoadByNameE
    ?LoadConfig@cCollectableItems_addresses@Simulator@@3IB=_ZN9Simulator27cCollectableItems_addresses10LoadConfigE
    ?LoadData@cSPAssetDataOTDB_addresses@Sporepedia@@3IB=_ZN10Sporepedia26cSPAssetDataOTDB_addresses8LoadDataE
    ?LoadDeclaration@VertexDescription_addresses@RenderWare@@3IB=_ZN10RenderWare27VertexDescription_addresses15LoadDeclarationE
    ?LoadEffectMap@cCellGFX_addresses@Cell@Simulator@@3IB=_ZN9Simulator4Cell18cCellGFX_addresses13LoadEffectMapE
    ?LoadFromItem@cPlanetaryArtifact_addresses@Simulator@@3IB=_ZN9Simulator28cPlanetaryArtifact_addresses12LoadFromItemE
    ?LoadMaterial@cSkinnerTexturePainter_addresses@Skinner@@3IB=_ZN7Skinner32cSkinnerTexturePainter_addresses12LoadMaterialE
    ?LoadModelProperties@IModelWorld_addresses@Graphics@@3IB=_ZN8Graphics21IModelWorld_addresses19LoadModelPropertiesE
    ?LoadPages@PaletteCategoryUI_addresses@Palettes@@3IB=_ZN8Palettes27PaletteCategoryUI_addresses9LoadPagesE
    ?LoadTerrainTransform@cTerrainSphereQuad_addresses@Terrain@@3IB=_ZN7Terrain28cTerrainSphereQuad_addresses20LoadTerrainTransformE
    ?LoadTool@cToolManager_addresses@Simulator@@3IB=_ZN9Simulator22cToolManager_addresses8LoadToolE
    ?LoadTransformations@cViewer_addresses@App@@3IB=_ZN3App17cViewer_addresses19LoadTransformationsE
    ?LocateChild@Window_addresses@UTFWin@@3IB=_ZN6UTFWin16Window_addresses11LocateChildE
    ?Lock@DatabaseDirectoryFiles_addresses@Resource@@3IB=_ZN8Resource32DatabaseDirectoryFiles_addresses4LockE
    ?Lock@DatabasePackedFile_addresses@Resource@@3IB=_ZN8Resource28DatabasePackedFile_addresses4LockE
    ?Lock@cMessageManager_addresses@App@@3IB=_ZN3App25cMessageManager_addresses4LockE
    ?LockVertexBuffer@cBufferDraw_addresses@Graphics@@3IB=_ZN8Graphics21cBufferDraw_addresses16LockVertexBufferE
    ?Log@ModAPI@@YAXPBDZZ=_ZN6ModAPI3LogEPKcz
    ?MainColorRTT_ptr@Graphics_addresses@@3IB=_ZN18Graphics_addresses16MainColorRTT_ptrE
    ?MainDepthRTT_ptr@Graphics_addresses@@3IB=_ZN18Graphics_addresses16MainDepthRTT_ptrE
    ?MainRenderPass@cTerrainSphere_addresses@Terrain@@3IB=_ZN7Terrain24cTerrainSphere_addresses14MainRenderPassE
    ?MakeIndexModifiable@DatabasePackedFile_addresses@Resource@@3IB=_ZN8Resource28DatabasePackedFile_addresses19MakeIndexModifiableE
    ?MaterialShader_ptr@RenderUtils_addresses@Graphics@@3IB=_ZN8Graphics21RenderUtils_addresses18MaterialShader_ptrE
    ?MaterialShader_ptr@Renderer_addresses@Graphics@@3IB=_ZN8Graphics18Renderer_addresses18MaterialShader_ptrE
    ?MatrixToEuler@Math_addresses@@3IB=_ZN14Math_addresses13MatrixToEulerE
    ?MessagePost@cEditorAnimEvent_addresses@Editors@@3IB=_ZN7Editors26cEditorAnimEvent_addresses11MessagePostE
    ?MessagePost@cMessageManager_addresses@App@@3IB=_ZN3App25cMessageManager_addresses11MessagePostE
    ?MessagePostFunction@cMessageManager_addresses@App@@3IB=_ZN3App25cMessageManager_addresses19MessagePostFunctionE
    ?MessageSend@cEditorAnimEvent_addresses@Editors@@3IB=_ZN7Editors26cEditorAnimEvent_addresses11MessageSendE
    ?MessageSend@cMessageManager_addresses@App@@3IB=_ZN3App25cMessageManager_addresses11MessageSendE
    ?ModelToWorldTransposed_ptr@RenderUtils_addresses@Graphics@@3IB=_ZN8Graphics21RenderUtils_addresses26ModelToWorldTransposed_ptrE
    ?ModelToWorldTransposed_ptr@Renderer_addresses@Graphics@@3IB=_ZN8Graphics18Renderer_addresses26ModelToWorldTransposed_ptrE
    ?ModelToWorld_ptr@RenderUtils_addresses@Graphics@@3IB=_ZN8Graphics21RenderUtils_addresses16ModelToWorld_ptrE
    ?ModelToWorld_ptr@Renderer_addresses@Graphics@@3IB=_ZN8Graphics18Renderer_addresses16ModelToWorld_ptrE
    ?MovePlayerToMousePosition@Cell_addresses@Simulator@@3IB=_ZN9Simulator14Cell_addresses25MovePlayerToMousePositionE
    ?MovePlayerToMousePosition@cCellGame_addresses@Cell@Simulator@@3IB=_ZN9Simulator4Cell19cCellGame_addresses25MovePlayerToMousePositionE
    ?MultiplyVectorScalar@Math_addresses@@3IB=_ZN14Math_addresses20MultiplyVectorScalarE
    ?NPCTickAI@cCreatureAnimal_addresses@Simulator@@3IB=_ZN9Simulator25cCreatureAnimal_addresses9NPCTickAIE
    ?NeedsToRelease@cResourceManager_addresses@Resource@@3IB=_ZN8Resource26cResourceManager_addresses14NeedsToReleaseE
    ?Next@PaletteIterator_addresses@Palettes@@3IB=_ZN8Palettes25PaletteIterator_addresses4NextE
    ?NextParameter@Lexer_addresses@ArgScript@@3IB=_ZN9ArgScript15Lexer_addresses13NextParameterE
    ?NextPoliticalID@cStarManager_addresses@Simulator@@3IB=_ZN9Simulator22cStarManager_addresses15NextPoliticalIDE
    ?ObtainTradingObject@cSpaceTrading_addresses@Simulator@@3IB=_ZN9Simulator23cSpaceTrading_addresses19ObtainTradingObjectE
    ?OffsetPlanes@cFrustumCull_addresses@Graphics@@3IB=_ZN8Graphics22cFrustumCull_addresses12OffsetPlanesE
    ?OnAttach@EditorCamera_addresses@Editors@@3IB=_ZN7Editors22EditorCamera_addresses8OnAttachE
    ?OnDeattach@EditorCamera_addresses@Editors@@3IB=_ZN7Editors22EditorCamera_addresses10OnDeattachE
    ?OnDeselect@cPlaceColonyToolStrategy_addresses@Simulator@@3IB=_ZN9Simulator34cPlaceColonyToolStrategy_addresses10OnDeselectE
    ?OnDeselect@cPlaceObjectToolStrategy_addresses@Simulator@@3IB=_ZN9Simulator34cPlaceObjectToolStrategy_addresses10OnDeselectE
    ?OnEnter@EditorCamera_addresses@Editors@@3IB=_ZN7Editors22EditorCamera_addresses7OnEnterE
    ?OnEnter@cCellModeStrategy_addresses@App@@3IB=_ZN3App27cCellModeStrategy_addresses7OnEnterE
    ?OnEnter@cEditor_addresses@Editors@@3IB=_ZN7Editors17cEditor_addresses7OnEnterE
    ?OnExit@EditorCamera_addresses@Editors@@3IB=_ZN7Editors22EditorCamera_addresses6OnExitE
    ?OnExit@cCellModeStrategy_addresses@App@@3IB=_ZN3App27cCellModeStrategy_addresses6OnExitE
    ?OnExit@cEditor_addresses@Editors@@3IB=_ZN7Editors17cEditor_addresses6OnExitE
    ?OnHit@cAbductToolStrategy_addresses@Simulator@@3IB=_ZN9Simulator29cAbductToolStrategy_addresses5OnHitE
    ?OnHit@cArtilleryWeaponStrategy_addresses@Simulator@@3IB=_ZN9Simulator34cArtilleryWeaponStrategy_addresses5OnHitE
    ?OnHit@cCropCirclesToolStrategy_addresses@Simulator@@3IB=_ZN9Simulator34cCropCirclesToolStrategy_addresses5OnHitE
    ?OnHit@cDefaultAoETool_addresses@Simulator@@3IB=_ZN9Simulator25cDefaultAoETool_addresses5OnHitE
    ?OnHit@cDefaultBeamTool_addresses@Simulator@@3IB=_ZN9Simulator26cDefaultBeamTool_addresses5OnHitE
    ?OnHit@cDefaultProjectileWeapon_addresses@Simulator@@3IB=_ZN9Simulator34cDefaultProjectileWeapon_addresses5OnHitE
    ?OnHit@cDragInputProjectileToolStrategy_addresses@Simulator@@3IB=_ZN9Simulator42cDragInputProjectileToolStrategy_addresses5OnHitE
    ?OnHit@cEnergyRepairToolStrategy_addresses@Simulator@@3IB=_ZN9Simulator35cEnergyRepairToolStrategy_addresses5OnHitE
    ?OnHit@cGenesisDeviceToolStrategy_addresses@Simulator@@3IB=_ZN9Simulator36cGenesisDeviceToolStrategy_addresses5OnHitE
    ?OnHit@cGetOutOfUFOToolStrategy_addresses@Simulator@@3IB=_ZN9Simulator34cGetOutOfUFOToolStrategy_addresses5OnHitE
    ?OnHit@cMindEraseToolStrategy_addresses@Simulator@@3IB=_ZN9Simulator32cMindEraseToolStrategy_addresses5OnHitE
    ?OnHit@cPlaceColonyToolStrategy_addresses@Simulator@@3IB=_ZN9Simulator34cPlaceColonyToolStrategy_addresses5OnHitE
    ?OnHit@cPlaceObjectToolStrategy_addresses@Simulator@@3IB=_ZN9Simulator34cPlaceObjectToolStrategy_addresses5OnHitE
    ?OnHit@cRepairToolStrategy_addresses@Simulator@@3IB=_ZN9Simulator29cRepairToolStrategy_addresses5OnHitE
    ?OnHit@cScanToolStrategy_addresses@Simulator@@3IB=_ZN9Simulator27cScanToolStrategy_addresses5OnHitE
    ?OnHit@cToolStrategy_addresses@Simulator@@3IB=_ZN9Simulator23cToolStrategy_addresses5OnHitE
    ?OnKeyDown@EditorCamera_addresses@Editors@@3IB=_ZN7Editors22EditorCamera_addresses9OnKeyDownE
    ?OnKeyDown@EditorPlayMode_addresses@Editors@@3IB=_ZN7Editors24EditorPlayMode_addresses9OnKeyDownE
    ?OnKeyDown@GameInput_addresses@@3IB=_ZN19GameInput_addresses9OnKeyDownE
    ?OnKeyDown@cCellModeStrategy_addresses@App@@3IB=_ZN3App27cCellModeStrategy_addresses9OnKeyDownE
    ?OnKeyDown@cEditor_addresses@Editors@@3IB=_ZN7Editors17cEditor_addresses9OnKeyDownE
    ?OnKeyDown@cMouseCamera_addresses@App@@3IB=_ZN3App22cMouseCamera_addresses9OnKeyDownE
    ?OnKeyUp@EditorCamera_addresses@Editors@@3IB=_ZN7Editors22EditorCamera_addresses7OnKeyUpE
    ?OnKeyUp@EditorPlayMode_addresses@Editors@@3IB=_ZN7Editors24EditorPlayMode_addresses7OnKeyUpE
    ?OnKeyUp@GameInput_addresses@@3IB=_ZN19GameInput_addresses7OnKeyUpE
    ?OnKeyUp@cCellModeStrategy_addresses@App@@3IB=_ZN3App27cCellModeStrategy_addresses7OnKeyUpE
    ?OnKeyUp@cEditor_addresses@Editors@@3IB=_ZN7Editors17cEditor_addresses7OnKeyUpE
    ?OnLayout@ProportionalLayout_addresses@UTFWin@@3IB=_ZN6UTFWin28ProportionalLayout_addresses8OnLayoutE
    ?OnLayout@SimpleLayout_addresses@UTFWin@@3IB=_ZN6UTFWin22SimpleLayout_addresses8OnLayoutE
    ?OnMouseDown@EditorCamera_addresses@Editors@@3IB=_ZN7Editors22EditorCamera_addresses11OnMouseDownE
    ?OnMouseDown@EditorPlayMode_addresses@Editors@@3IB=_ZN7Editors24EditorPlayMode_addresses11OnMouseDownE
    ?OnMouseDown@cCellModeStrategy_addresses@App@@3IB=_ZN3App27cCellModeStrategy_addresses11OnMouseDownE
    ?OnMouseDown@cDefaultAoETool_addresses@Simulator@@3IB=_ZN9Simulator25cDefaultAoETool_addresses11OnMouseDownE
    ?OnMouseDown@cDefaultBeamTool_addresses@Simulator@@3IB=_ZN9Simulator26cDefaultBeamTool_addresses11OnMouseDownE
    ?OnMouseDown@cDragInputProjectileToolStrategy_addresses@Simulator@@3IB=_ZN9Simulator42cDragInputProjectileToolStrategy_addresses11OnMouseDownE
    ?OnMouseDown@cEditor_addresses@Editors@@3IB=_ZN7Editors17cEditor_addresses11OnMouseDownE
    ?OnMouseDown@cMouseCamera_addresses@App@@3IB=_ZN3App22cMouseCamera_addresses11OnMouseDownE
    ?OnMouseMove@EditorCamera_addresses@Editors@@3IB=_ZN7Editors22EditorCamera_addresses11OnMouseMoveE
    ?OnMouseMove@EditorPlayMode_addresses@Editors@@3IB=_ZN7Editors24EditorPlayMode_addresses11OnMouseMoveE
    ?OnMouseMove@cCellModeStrategy_addresses@App@@3IB=_ZN3App27cCellModeStrategy_addresses11OnMouseMoveE
    ?OnMouseMove@cEditor_addresses@Editors@@3IB=_ZN7Editors17cEditor_addresses11OnMouseMoveE
    ?OnMouseMove@cMouseCamera_addresses@App@@3IB=_ZN3App22cMouseCamera_addresses11OnMouseMoveE
    ?OnMouseUp@EditorCamera_addresses@Editors@@3IB=_ZN7Editors22EditorCamera_addresses9OnMouseUpE
    ?OnMouseUp@EditorPlayMode_addresses@Editors@@3IB=_ZN7Editors24EditorPlayMode_addresses9OnMouseUpE
    ?OnMouseUp@cAbductToolStrategy_addresses@Simulator@@3IB=_ZN9Simulator29cAbductToolStrategy_addresses9OnMouseUpE
    ?OnMouseUp@cCellModeStrategy_addresses@App@@3IB=_ZN3App27cCellModeStrategy_addresses9OnMouseUpE
    ?OnMouseUp@cDefaultAoETool_addresses@Simulator@@3IB=_ZN9Simulator25cDefaultAoETool_addresses9OnMouseUpE
    ?OnMouseUp@cDefaultBeamTool_addresses@Simulator@@3IB=_ZN9Simulator26cDefaultBeamTool_addresses9OnMouseUpE
    ?OnMouseUp@cDropCargoToolStrategy_addresses@Simulator@@3IB=_ZN9Simulator32cDropCargoToolStrategy_addresses9OnMouseUpE
    ?OnMouseUp@cEditor_addresses@Editors@@3IB=_ZN7Editors17cEditor_addresses9OnMouseUpE
    ?OnMouseUp@cMouseCamera_addresses@App@@3IB=_ZN3App22cMouseCamera_addresses9OnMouseUpE
    ?OnMouseUp@cToolManager_addresses@Simulator@@3IB=_ZN9Simulator22cToolManager_addresses9OnMouseUpE
    ?OnMouseUp@cToolStrategy_addresses@Simulator@@3IB=_ZN9Simulator23cToolStrategy_addresses9OnMouseUpE
    ?OnMouseWheel@EditorCamera_addresses@Editors@@3IB=_ZN7Editors22EditorCamera_addresses12OnMouseWheelE
    ?OnMouseWheel@cCellModeStrategy_addresses@App@@3IB=_ZN3App27cCellModeStrategy_addresses12OnMouseWheelE
    ?OnMouseWheel@cEditor_addresses@Editors@@3IB=_ZN7Editors17cEditor_addresses12OnMouseWheelE
    ?OnMouseWheel@cMouseCamera_addresses@App@@3IB=_ZN3App22cMouseCamera_addresses12OnMouseWheelE
    ?OnOutside@AdvancedItemViewer_addresses@Palettes@@3IB=_ZN8Palettes28AdvancedItemViewer_addresses9OnOutsideE
    ?OnPaint@Window_addresses@UTFWin@@3IB=_ZN6UTFWin16Window_addresses7OnPaintE
    ?OnSelect@cGetOutOfUFOToolStrategy_addresses@Simulator@@3IB=_ZN9Simulator34cGetOutOfUFOToolStrategy_addresses8OnSelectE
    ?OnSelect@cPlaceColonyToolStrategy_addresses@Simulator@@3IB=_ZN9Simulator34cPlaceColonyToolStrategy_addresses8OnSelectE
    ?OnSelect@cPlaceObjectToolStrategy_addresses@Simulator@@3IB=_ZN9Simulator34cPlaceObjectToolStrategy_addresses8OnSelectE
    ?OnSelect@cScanToolStrategy_addresses@Simulator@@3IB=_ZN9Simulator27cScanToolStrategy_addresses8OnSelectE
    ?OnSelect@cToolStrategy_addresses@Simulator@@3IB=_ZN9Simulator23cToolStrategy_addresses8OnSelectE
    ?Open@DatabaseDirectoryFiles_addresses@Resource@@3IB=_ZN8Resource32DatabaseDirectoryFiles_addresses10OpenRecordE
    ?Open@DatabasePackedFile_addresses@Resource@@3IB=_ZN8Resource28DatabasePackedFile_addresses10OpenRecordE
    ?Open@FileStream_addresses@IO@@3IB=_ZN2IO20FileStream_addresses4OpenE
    ?Open@PFRecordRead_addresses@Resource@@3IB=_ZN8Resource22PFRecordRead_addresses4OpenE
    ?Open@PFRecordWrite_addresses@Resource@@3IB=_ZN8Resource23PFRecordWrite_addresses4OpenE
    ?Open@StreamChild_addresses@IO@@3IB=_ZN2IO21StreamChild_addresses4OpenE
    ?OpenRecord@DatabaseDirectoryFiles_addresses@Resource@@3IB=_ZN8Resource32DatabaseDirectoryFiles_addresses10OpenRecordE
    ?OpenRecord@DatabasePackedFile_addresses@Resource@@3IB=_ZN8Resource28DatabasePackedFile_addresses10OpenRecordE
    ?OpenURL@cAppSystem_addresses@App@@3IB=_ZN3App20cAppSystem_addresses7OpenURLE
    ?OptionalExpectChar@Lexer_addresses@ArgScript@@3IB=_ZN9ArgScript15Lexer_addresses18OptionalExpectCharE
    ?Paint@ButtonDrawableRadio_addresses@UTFWin@@3IB=_ZN6UTFWin29ButtonDrawableRadio_addresses5PaintE
    ?Paint@ButtonDrawableStandard_addresses@UTFWin@@3IB=_ZN6UTFWin32ButtonDrawableStandard_addresses5PaintE
    ?Paint@ComboBoxDrawable_addresses@UTFWin@@3IB=_ZN6UTFWin26ComboBoxDrawable_addresses5PaintE
    ?Paint@DialogDrawable_addresses@UTFWin@@3IB=_ZN6UTFWin24DialogDrawable_addresses5PaintE
    ?Paint@FrameDrawable_addresses@UTFWin@@3IB=_ZN6UTFWin23FrameDrawable_addresses5PaintE
    ?Paint@ImageDrawable_addresses@UTFWin@@3IB=_ZN6UTFWin23ImageDrawable_addresses5PaintE
    ?Paint@ScrollbarDrawable_addresses@UTFWin@@3IB=_ZN6UTFWin27ScrollbarDrawable_addresses5PaintE
    ?Paint@SliderDrawable_addresses@UTFWin@@3IB=_ZN6UTFWin24SliderDrawable_addresses5PaintE
    ?Paint@SpinnerDrawable_addresses@UTFWin@@3IB=_ZN6UTFWin25SpinnerDrawable_addresses5PaintE
    ?Paint@SporeStdDrawable_addresses@UTFWin@@3IB=_ZN6UTFWin26SporeStdDrawable_addresses5PaintE
    ?Paint@StdDrawable_addresses@UTFWin@@3IB=_ZN6UTFWin21StdDrawable_addresses5PaintE
    ?Paint@VariableWidthDrawable_addresses@UTFWin@@3IB=_ZN6UTFWin31VariableWidthDrawable_addresses5PaintE
    ?PaintRegion@cSkinnerTexturePainter_addresses@Skinner@@3IB=_ZN7Skinner32cSkinnerTexturePainter_addresses11PaintRegionE
    ?PaintSkin@cEditorSkin_addresses@Editors@@3IB=_ZN7Editors21cEditorSkin_addresses9PaintSkinE
    ?Parse@ResourceKey_addresses@@3IB=_ZN21ResourceKey_addresses5ParseE
    ?Parse@cCreatureAbility_addresses@Simulator@@3IB=_ZN9Simulator26cCreatureAbility_addresses5ParseE
    ?ParseBool@FormatParser_addresses@ArgScript@@3IB=_ZN9ArgScript22FormatParser_addresses9ParseBoolE
    ?ParseCameras@cCameraManager_addresses@App@@3IB=_ZN3App24cCameraManager_addresses12ParseCamerasE
    ?ParseColorRGB@FormatParser_addresses@ArgScript@@3IB=_ZN9ArgScript22FormatParser_addresses13ParseColorRGBE
    ?ParseColorRGBA@FormatParser_addresses@ArgScript@@3IB=_ZN9ArgScript22FormatParser_addresses14ParseColorRGBAE
    ?ParseFloat@FormatParser_addresses@ArgScript@@3IB=_ZN9ArgScript22FormatParser_addresses10ParseFloatE
    ?ParseInt@FormatParser_addresses@ArgScript@@3IB=_ZN9ArgScript22FormatParser_addresses8ParseIntE
    ?ParseUInt@FormatParser_addresses@ArgScript@@3IB=_ZN9ArgScript22FormatParser_addresses9ParseUIntE
    ?ParseVector2@FormatParser_addresses@ArgScript@@3IB=_ZN9ArgScript22FormatParser_addresses12ParseVector2E
    ?ParseVector3@FormatParser_addresses@ArgScript@@3IB=_ZN9ArgScript22FormatParser_addresses12ParseVector3E
    ?ParseVector4@FormatParser_addresses@ArgScript@@3IB=_ZN9ArgScript22FormatParser_addresses12ParseVector4E
    ?Pause@Clock_addresses@@3IB=_ZN15Clock_addresses5PauseE
    ?Pause@cAppSystem_addresses@App@@3IB=_ZN3App20cAppSystem_addresses5PauseE
    ?Pause@cGameTimeManager_addresses@Simulator@@3IB=_ZN9Simulator26cGameTimeManager_addresses5PauseE
    ?PickCreation@cCultureSet_addresses@Simulator@@3IB=_ZN9Simulator21cCultureSet_addresses12PickCreationE
    ?PixelShaderDataUniforms_ptr@Graphics_addresses@@3IB=_ZN18Graphics_addresses27PixelShaderDataUniforms_ptrE
    ?PixelShaders_ptr@CompiledShader_addresses@Graphics@@3IB=_ZN8Graphics24CompiledShader_addresses16PixelShaders_ptrE
    ?PlayAnimation@Cell_addresses@Simulator@@3IB=_ZN9Simulator14Cell_addresses13PlayAnimationE
    ?PlayAnimation@cCreatureBase_addresses@Simulator@@3IB=_ZN9Simulator23cCreatureBase_addresses13PlayAnimationE
    ?PlayAnimationTo@cCreatureBase_addresses@Simulator@@3IB=_ZN9Simulator23cCreatureBase_addresses15PlayAnimationToE
    ?PlayAudio@AudioSystem_addresses@Audio@@3IB=_ZN5Audio21AudioSystem_addresses9PlayAudioE
    ?PlayAudio@Audio_addresses@@3IB=_ZN15Audio_addresses9PlayAudioE
    ?PlayProceduralAudio@Audio_addresses@@3IB=_ZN15Audio_addresses19PlayProceduralAudioE
    ?PlayVoice@cCreatureBase_addresses@Simulator@@3IB=_ZN9Simulator23cCreatureBase_addresses9PlayVoiceE
    ?PostEventToActors@cEditor_addresses@Editors@@3IB=_ZN7Editors17cEditor_addresses17PostEventToActorsE
    ?PostMSG@cMessageManager_addresses@App@@3IB=_ZN3App25cMessageManager_addresses7PostMSGE
    ?PostUpdate@cAppSystem_addresses@App@@3IB=_ZN3App20cAppSystem_addresses10PostUpdateE
    ?PreInit@cAppSystem_addresses@App@@3IB=_ZN3App20cAppSystem_addresses7PreInitE
    ?PreShutdown@cAppSystem_addresses@App@@3IB=_ZN3App20cAppSystem_addresses11PreShutdownE
    ?PreTransformBy@Transform_addresses@@3IB=_ZN19Transform_addresses14PreTransformByE
    ?PrecalculatedSolarStarRadius_ptr@Simulator_addresses@@3IB=_ZN19Simulator_addresses32PrecalculatedSolarStarRadius_ptrE
    ?PreloadCellResource@cCellGFX_addresses@Cell@Simulator@@3IB=_ZN9Simulator4Cell18cCellGFX_addresses19PreloadCellResourceE
    ?PreloadCreature@cCellGFX_addresses@Cell@Simulator@@3IB=_ZN9Simulator4Cell18cCellGFX_addresses15PreloadCreatureE
    ?PreloadLootTableResource@cCellGFX_addresses@Cell@Simulator@@3IB=_ZN9Simulator4Cell18cCellGFX_addresses24PreloadLootTableResourceE
    ?PreloadPopulateResource@cCellGFX_addresses@Cell@Simulator@@3IB=_ZN9Simulator4Cell18cCellGFX_addresses23PreloadPopulateResourceE
    ?PreloadPropertyLists@cPropManager_addresses@App@@3IB=_ZN3App22cPropManager_addresses20PreloadPropertyListsE
    ?PreloadResources@cCellGFX_addresses@Cell@Simulator@@3IB=_ZN9Simulator4Cell18cCellGFX_addresses16PreloadResourcesE
    ?PreloadTextures@cSkinPainterPipeline_addresses@Skinner@@3IB=_ZN7Skinner30cSkinPainterPipeline_addresses15PreloadTexturesE
    ?PrepareShaderData@cTerrainSphere_addresses@Terrain@@3IB=_ZN7Terrain24cTerrainSphere_addresses17PrepareShaderDataE
    ?PresentationParameters_ptr@RenderUtils_addresses@Graphics@@3IB=_ZN8Graphics21RenderUtils_addresses26PresentationParameters_ptrE
    ?PresentationParameters_ptr@Renderer_addresses@Graphics@@3IB=_ZN8Graphics18Renderer_addresses26PresentationParameters_ptrE
    ?PrintF@ArgScript@@3P6APAXPAVFormatParser@1@PBDZZA=_ZN9ArgScript6PrintFE
    ?Process@VertexDescription_addresses@RenderWare@@3IB=_ZN10RenderWare27VertexDescription_addresses7ProcessE
    ?ProcessAssetFilter@Sporepedia_addresses@@3IB=_ZN20Sporepedia_addresses18ProcessAssetFilterE
    ?ProcessBuildingUpdate@cCity_addresses@Simulator@@3IB=_ZN9Simulator15cCity_addresses21ProcessBuildingUpdateE
    ?ProcessCost@cDragInputProjectileToolStrategy_addresses@Simulator@@3IB=_ZN9Simulator42cDragInputProjectileToolStrategy_addresses11ProcessCostE
    ?ProcessCost@cEnergyRepairToolStrategy_addresses@Simulator@@3IB=_ZN9Simulator35cEnergyRepairToolStrategy_addresses11ProcessCostE
    ?ProcessCost@cRepairToolStrategy_addresses@Simulator@@3IB=_ZN9Simulator29cRepairToolStrategy_addresses11ProcessCostE
    ?ProcessFile@FormatParser_addresses@ArgScript@@3IB=_ZN9ArgScript22FormatParser_addresses11ProcessFileE
    ?ProcessFileSafe@FormatParser_addresses@ArgScript@@3IB=_ZN9ArgScript22FormatParser_addresses15ProcessFileSafeE
    ?ProcessLine@FormatParser_addresses@ArgScript@@3IB=_ZN9ArgScript22FormatParser_addresses11ProcessLineE
    ?ProcessLine@cCheatManager_addresses@App@@3IB=_ZN3App23cCheatManager_addresses11ProcessLineE
    ?ProcessLineSafe@FormatParser_addresses@ArgScript@@3IB=_ZN9ArgScript22FormatParser_addresses15ProcessLineSafeE
    ?ProcessQueue2@cMessageManager_addresses@App@@3IB=_ZN3App25cMessageManager_addresses13ProcessQueue2E
    ?ProcessQueue@cMessageManager_addresses@App@@3IB=_ZN3App25cMessageManager_addresses12ProcessQueueE
    ?ProcessStream@FormatParser_addresses@ArgScript@@3IB=_ZN9ArgScript22FormatParser_addresses13ProcessStreamE
    ?ProcessStreamSafe@FormatParser_addresses@ArgScript@@3IB=_ZN9ArgScript22FormatParser_addresses17ProcessStreamSafeE
    ?ProcessSummary@cSPAssetDataOTDB_addresses@Sporepedia@@3IB=_ZN10Sporepedia26cSPAssetDataOTDB_addresses14ProcessSummaryE
    ?PurgeScope@FormatParser_addresses@ArgScript@@3IB=_ZN9ArgScript22FormatParser_addresses10PurgeScopeE
    ?PutCamera@cCameraManager_addresses@App@@3IB=_ZN3App24cCameraManager_addresses9PutCameraE
    ?PutFileInfo@PFIndexModifiable_addresses@Resource@@3IB=_ZN8Resource27PFIndexModifiable_addresses11PutFileInfoE
    ?RandomFloat@RandomNumberGenerator_addresses@Math@@3IB=_ZN4Math31RandomNumberGenerator_addresses11RandomFloatE
    ?RandomInt@RandomNumberGenerator_addresses@Math@@3IB=_ZN4Math31RandomNumberGenerator_addresses9RandomIntE
    ?RandomNumberGenerator_ptr@Math_addresses@@3IB=_ZN14Math_addresses25RandomNumberGenerator_ptrE
    ?ReactToPowerup@cScenarioPowerup_addresses@Simulator@@3IB=_ZN9Simulator26cScenarioPowerup_addresses14ReactToPowerupE
    ?Read@ClassSerializer_addresses@Simulator@@3IB=_ZN9Simulator25ClassSerializer_addresses4ReadE
    ?Read@DatabasePackedFile_addresses@Resource@@3IB=_ZN8Resource28DatabasePackedFile_addresses10ReadHeaderE
    ?Read@DirectPropertyList_addresses@App@@3IB=_ZN3App28DirectPropertyList_addresses4ReadE
    ?Read@FileStream_addresses@IO@@3IB=_ZN2IO20FileStream_addresses4ReadE
    ?Read@FixedMemoryStream_addresses@IO@@3IB=_ZN2IO27FixedMemoryStream_addresses4ReadE
    ?Read@MemoryStream_addresses@IO@@3IB=_ZN2IO22MemoryStream_addresses4ReadE
    ?Read@PFIndexModifiable_addresses@Resource@@3IB=_ZN8Resource27PFIndexModifiable_addresses4ReadE
    ?Read@PFRecordRead_addresses@Resource@@3IB=_ZN8Resource22PFRecordRead_addresses4ReadE
    ?Read@PFRecordWrite_addresses@Resource@@3IB=_ZN8Resource23PFRecordWrite_addresses4ReadE
    ?Read@PropertyList_addresses@App@@3IB=_ZN3App22PropertyList_addresses4ReadE
    ?Read@ShaderBuilder_addresses@Graphics@@3IB=_ZN8Graphics23ShaderBuilder_addresses4ReadE
    ?Read@StandardShader_addresses@Graphics@@3IB=_ZN8Graphics24StandardShader_addresses4ReadE
    ?Read@StreamBuffer_addresses@IO@@3IB=_ZN2IO22StreamBuffer_addresses4ReadE
    ?Read@StreamChild_addresses@IO@@3IB=_ZN2IO21StreamChild_addresses4ReadE
    ?Read@StreamNull_addresses@IO@@3IB=_ZN2IO20StreamNull_addresses4ReadE
    ?Read@cCelestialBody_addresses@Simulator@@3IB=_ZN9Simulator24cCelestialBody_addresses4ReadE
    ?Read@cCreatureDataResource_addresses@Editors@@3IB=_ZN7Editors31cCreatureDataResource_addresses4ReadE
    ?Read@cGameData_addresses@Simulator@@3IB=_ZN9Simulator19cGameData_addresses4ReadE
    ?Read@cPropManager_addresses@App@@3IB=_ZN3App22cPropManager_addresses12ReadResourceE
    ?Read@cScenarioResource_addresses@Simulator@@3IB=_ZN9Simulator27cScenarioResource_addresses4ReadE
    ?ReadAnimButton@PlayModeAnimations_addresses@Editors@@3IB=_ZN7Editors28PlayModeAnimations_addresses14ReadAnimButtonE
    ?ReadAnimations@PlayModeAnimations_addresses@Editors@@3IB=_ZN7Editors28PlayModeAnimations_addresses14ReadAnimationsE
    ?ReadBool8@IO_addresses@@3IB=_ZN12IO_addresses9ReadBool8E
    ?ReadBytes@DatabasePackedFile_addresses@Resource@@3IB=_ZN8Resource28DatabasePackedFile_addresses9ReadBytesE
    ?ReadCString@IO_addresses@@3IB=_ZN12IO_addresses11ReadCStringE
    ?ReadData@DatabasePackedFile_addresses@Resource@@3IB=_ZN8Resource28DatabasePackedFile_addresses8ReadDataE
    ?ReadData@PFRecordRead_addresses@Resource@@3IB=_ZN8Resource22PFRecordRead_addresses8ReadDataE
    ?ReadExtensionMappingsFromPropFile@Resource_addresses@@3IB=_ZN18Resource_addresses33ReadExtensionMappingsFromPropFileE
    ?ReadFloat@IO_addresses@@3IB=_ZN12IO_addresses9ReadFloatE
    ?ReadHeader@DatabasePackedFile_addresses@Resource@@3IB=_ZN8Resource28DatabasePackedFile_addresses10ReadHeaderE
    ?ReadHeaderRecord@DatabasePackedFile_addresses@Resource@@3IB=_ZN8Resource28DatabasePackedFile_addresses16ReadHeaderRecordE
    ?ReadHeaders@DatabasePackedFile_addresses@Resource@@3IB=_ZN8Resource28DatabasePackedFile_addresses11ReadHeadersE
    ?ReadIndex@DatabasePackedFile_addresses@Resource@@3IB=_ZN8Resource28DatabasePackedFile_addresses15ReadIndexRecordE
    ?ReadIndexRecord@DatabasePackedFile_addresses@Resource@@3IB=_ZN8Resource28DatabasePackedFile_addresses15ReadIndexRecordE
    ?ReadInt16@IO_addresses@@3IB=_ZN12IO_addresses9ReadInt16E
    ?ReadInt32@IO_addresses@@3IB=_ZN12IO_addresses9ReadInt32E
    ?ReadInt8@IO_addresses@@3IB=_ZN12IO_addresses8ReadInt8E
    ?ReadItemsModule@PalettePage_addresses@Palettes@@3IB=_ZN8Palettes21PalettePage_addresses15ReadItemsModuleE
    ?ReadLine@IO_addresses@@3IB=_ZN12IO_addresses8ReadLineE
    ?ReadModuleProp@PaletteMain_addresses@Palettes@@3IB=_ZN8Palettes21PaletteMain_addresses14ReadModulePropE
    ?ReadPanel@PlayModeAnimations_addresses@Editors@@3IB=_ZN7Editors28PlayModeAnimations_addresses9ReadPanelE
    ?ReadProp@PaletteCategory_addresses@Palettes@@3IB=_ZN8Palettes25PaletteCategory_addresses8ReadPropE
    ?ReadProp@PaletteMain_addresses@Palettes@@3IB=_ZN8Palettes21PaletteMain_addresses8ReadPropE
    ?ReadProp@PalettePage_addresses@Palettes@@3IB=_ZN8Palettes21PalettePage_addresses8ReadPropE
    ?ReadResource@cPropManager_addresses@App@@3IB=_ZN3App22cPropManager_addresses12ReadResourceE
    ?ReadResource@cResourceManager_addresses@Resource@@3IB=_ZN8Resource26cResourceManager_addresses12ReadResourceE
    ?ReadResourceID@IO_addresses@@3IB=_ZN12IO_addresses14ReadResourceIDE
    ?ReadShaderFragments@cMaterialManager_addresses@Graphics@@3IB=_ZN8Graphics26cMaterialManager_addresses19ReadShaderFragmentsE
    ?ReadUInt16@IO_addresses@@3IB=_ZN12IO_addresses10ReadUInt16E
    ?ReadUInt32@IO_addresses@@3IB=_ZN12IO_addresses10ReadUInt32E
    ?ReadUInt8@IO_addresses@@3IB=_ZN12IO_addresses9ReadUInt8E
    ?RecordClose@PFRecordRead_addresses@Resource@@3IB=_ZN8Resource22PFRecordRead_addresses11RecordCloseE
    ?RecordClose@PFRecordWrite_addresses@Resource@@3IB=_ZN8Resource23PFRecordWrite_addresses11RecordCloseE
    ?RecordOpen@PFRecordRead_addresses@Resource@@3IB=_ZN8Resource22PFRecordRead_addresses10RecordOpenE
    ?RecordOpen@PFRecordWrite_addresses@Resource@@3IB=_ZN8Resource23PFRecordWrite_addresses10RecordOpenE
    ?RecordToPlanet@cStarManager_addresses@Simulator@@3IB=_ZN9Simulator22cStarManager_addresses14RecordToPlanetE
    ?Redo@cEditor_addresses@Editors@@3IB=_ZN7Editors17cEditor_addresses4RedoE
    ?RegisterCache@cResourceManager_addresses@Resource@@3IB=_ZN8Resource26cResourceManager_addresses13RegisterCacheE
    ?RegisterChangeNotification@cResourceManager_addresses@Resource@@3IB=_ZN8Resource26cResourceManager_addresses26RegisterChangeNotificationE
    ?RegisterDatabase@cResourceManager_addresses@Resource@@3IB=_ZN8Resource26cResourceManager_addresses16RegisterDatabaseE
    ?RegisterDirectory@Paths_addresses@Resource@@3IB=_ZN8Resource15Paths_addresses17RegisterDirectoryE
    ?RegisterFactory@cResourceManager_addresses@Resource@@3IB=_ZN8Resource26cResourceManager_addresses15RegisterFactoryE
    ?RegisterNounType@Simulator_addresses@@3IB=_ZN19Simulator_addresses16RegisterNounTypeE
    ?RegisterSaveArea@Paths_addresses@Resource@@3IB=_ZN8Resource15Paths_addresses16RegisterSaveAreaE
    ?RegisterShaderData@RenderUtils_addresses@Graphics@@3IB=_ZN8Graphics21RenderUtils_addresses18RegisterShaderDataE
    ?RegisterShaderData@Renderer_addresses@Graphics@@3IB=_ZN8Graphics18Renderer_addresses18RegisterShaderDataE
    ?RelationshipExists@cRelationshipManager_addresses@Simulator@@3IB=_ZN9Simulator30cRelationshipManager_addresses18RelationshipExistsE
    ?Release@EditorCamera_addresses@Editors@@3IB=_ZN7Editors22EditorCamera_addresses7ReleaseE
    ?Release@FileStream_addresses@IO@@3IB=_ZN2IO20FileStream_addresses7ReleaseE
    ?Release@FixedMemoryStream_addresses@IO@@3IB=_ZN2IO27FixedMemoryStream_addresses7ReleaseE
    ?Release@FormatParser_addresses@ArgScript@@3IB=_ZN9ArgScript22FormatParser_addresses7ReleaseE
    ?Release@MemoryStream_addresses@IO@@3IB=_ZN2IO22MemoryStream_addresses7ReleaseE
    ?Release@Model_addresses@Graphics@@3IB=_ZN8Graphics15Model_addresses7ReleaseE
    ?Release@ShaderBuilder_addresses@Graphics@@3IB=_ZN8Graphics23ShaderBuilder_addresses7ReleaseE
    ?Release@StandardShader_addresses@Graphics@@3IB=_ZN8Graphics24StandardShader_addresses7ReleaseE
    ?Release@StreamBuffer_addresses@IO@@3IB=_ZN2IO22StreamBuffer_addresses7ReleaseE
    ?Release@StreamChild_addresses@IO@@3IB=_ZN2IO21StreamChild_addresses7ReleaseE
    ?Release@StreamNull_addresses@IO@@3IB=_ZN2IO20StreamNull_addresses7ReleaseE
    ?Release@cCameraManager_addresses@App@@3IB=_ZN3App24cCameraManager_addresses7ReleaseE
    ?Release@cCellModeStrategy_addresses@App@@3IB=_ZN3App27cCellModeStrategy_addresses7ReleaseE
    ?Release@cGameModeManager_addresses@App@@3IB=_ZN3App26cGameModeManager_addresses7ReleaseE
    ?Release@cJob_addresses@App@@3IB=_ZN3App14cJob_addresses7ReleaseE
    ?Release@cPropManager_addresses@App@@3IB=_ZN3App22cPropManager_addresses7ReleaseE
    ?ReleaseObject@DatabasePackedFile_addresses@Resource@@3IB=_ZN8Resource28DatabasePackedFile_addresses13ReleaseObjectE
    ?ReleaseResources@cResourceManager_addresses@Resource@@3IB=_ZN8Resource26cResourceManager_addresses16ReleaseResourcesE
    ?ReloadResource@cResourceManager_addresses@Resource@@3IB=_ZN8Resource26cResourceManager_addresses14ReloadResourceE
    ?Remove@Directory_addresses@IO@@3IB=_ZN2IO19Directory_addresses6RemoveE
    ?Remove@File_addresses@IO@@3IB=_ZN2IO14File_addresses6RemoveE
    ?RemoveBuilding@cCity_addresses@Simulator@@3IB=_ZN9Simulator15cCity_addresses14RemoveBuildingE
    ?RemoveCameras@cCameraManager_addresses@App@@3IB=_ZN3App24cCameraManager_addresses13RemoveCamerasE
    ?RemoveCheat@cCheatManager_addresses@App@@3IB=_ZN3App23cCheatManager_addresses11RemoveCheatE
    ?RemoveEntry@cMessageManager_addresses@App@@3IB=_ZN3App25cMessageManager_addresses11RemoveEntryE
    ?RemoveExtensionMapping@cResourceManager_addresses@Resource@@3IB=_ZN8Resource26cResourceManager_addresses22RemoveExtensionMappingE
    ?RemoveFile@DatabasePackedFile_addresses@Resource@@3IB=_ZN8Resource28DatabasePackedFile_addresses10RemoveFileE
    ?RemoveFile@PFIndexModifiable_addresses@Resource@@3IB=_ZN8Resource27PFIndexModifiable_addresses10RemoveFileE
    ?RemoveFileName@cResourceManager_addresses@Resource@@3IB=_ZN8Resource26cResourceManager_addresses14RemoveFileNameE
    ?RemoveGameMode@cGameModeManager_addresses@App@@3IB=_ZN3App26cGameModeManager_addresses14RemoveGameModeE
    ?RemoveHandler@cMessageManager_addresses@App@@3IB=_ZN3App25cMessageManager_addresses13RemoveHandlerE
    ?RemoveListener@cMessageManager_addresses@App@@3IB=_ZN3App25cMessageManager_addresses14RemoveListenerE
    ?RemoveObject@cLayoutSlot_addresses@Simulator@@3IB=_ZN9Simulator21cLayoutSlot_addresses12RemoveObjectE
    ?RemoveOwner@cCelestialBody_addresses@Simulator@@3IB=_ZN9Simulator24cCelestialBody_addresses11RemoveOwnerE
    ?RemoveOwner@cGameData_addresses@Simulator@@3IB=_ZN9Simulator19cGameData_addresses11RemoveOwnerE
    ?RemoveParser@FormatParser_addresses@ArgScript@@3IB=_ZN9ArgScript22FormatParser_addresses12RemoveParserE
    ?RemoveParserByObject@FormatParser_addresses@ArgScript@@3IB=_ZN9ArgScript22FormatParser_addresses20RemoveParserByObjectE
    ?RemoveProperty@DirectPropertyList_addresses@App@@3IB=_ZN3App28DirectPropertyList_addresses14RemovePropertyE
    ?RemoveProperty@PropertyList_addresses@App@@3IB=_ZN3App22PropertyList_addresses14RemovePropertyE
    ?RemovePropertyList@cPropManager_addresses@App@@3IB=_ZN3App22cPropManager_addresses18RemovePropertyListE
    ?RemovePropertyLists2@cPropManager_addresses@App@@3IB=_ZN3App22cPropManager_addresses20RemovePropertyLists2E
    ?RemovePropertyLists@cPropManager_addresses@App@@3IB=_ZN3App22cPropManager_addresses19RemovePropertyListsE
    ?RemoveWinProc@Window_addresses@UTFWin@@3IB=_ZN6UTFWin16Window_addresses13RemoveWinProcE
    ?RemoveWindow@Window_addresses@UTFWin@@3IB=_ZN6UTFWin16Window_addresses12RemoveWindowE
    ?Render@Mesh_addresses@RenderWare@@3IB=_ZN10RenderWare14Mesh_addresses6RenderE
    ?RenderAtmosphere@cTerrainSphereQuad_addresses@Terrain@@3IB=_ZN7Terrain28cTerrainSphereQuad_addresses16RenderAtmosphereE
    ?RenderDecals@cTerrainSphereQuad_addresses@Terrain@@3IB=_ZN7Terrain28cTerrainSphereQuad_addresses12RenderDecalsE
    ?RenderLand@cTerrainSphereQuad_addresses@Terrain@@3IB=_ZN7Terrain28cTerrainSphereQuad_addresses10RenderLandE
    ?RenderSeabedAsLand@cTerrainSphereQuad_addresses@Terrain@@3IB=_ZN7Terrain28cTerrainSphereQuad_addresses18RenderSeabedAsLandE
    ?RenderTerrainAtmosphere@cTerrainSphere_addresses@Terrain@@3IB=_ZN7Terrain24cTerrainSphere_addresses23RenderTerrainAtmosphereE
    ?RenderTerrainDecals@cTerrainSphere_addresses@Terrain@@3IB=_ZN7Terrain24cTerrainSphere_addresses19RenderTerrainDecalsE
    ?RenderTerrainLand@cTerrainSphere_addresses@Terrain@@3IB=_ZN7Terrain24cTerrainSphere_addresses17RenderTerrainLandE
    ?RenderTerrainRibbons@cTerrainSphere_addresses@Terrain@@3IB=_ZN7Terrain24cTerrainSphere_addresses20RenderTerrainRibbonsE
    ?RenderTerrainSeabedAsLand@cTerrainSphere_addresses@Terrain@@3IB=_ZN7Terrain24cTerrainSphere_addresses25RenderTerrainSeabedAsLandE
    ?RenderTerrainWater@cTerrainSphere_addresses@Terrain@@3IB=_ZN7Terrain24cTerrainSphere_addresses18RenderTerrainWaterE
    ?RenderWater@cTerrainSphereQuad_addresses@Terrain@@3IB=_ZN7Terrain28cTerrainSphereQuad_addresses11RenderWaterE
    ?RenderWaterReflection@cTerrainSphere_addresses@Terrain@@3IB=_ZN7Terrain24cTerrainSphere_addresses21RenderWaterReflectionE
    ?RenderWaterReflectionAndRefraction@cTerrainSphere_addresses@Terrain@@3IB=_ZN7Terrain24cTerrainSphere_addresses34RenderWaterReflectionAndRefractionE
    ?RenderWaterRefraction@cTerrainSphere_addresses@Terrain@@3IB=_ZN7Terrain24cTerrainSphere_addresses21RenderWaterRefractionE
    ?RenovateIndex@DatabasePackedFile_addresses@Resource@@3IB=_ZN8Resource28DatabasePackedFile_addresses13RenovateIndexE
    ?RequirePlanetsForStar@cStarManager_addresses@Simulator@@3IB=_ZN9Simulator22cStarManager_addresses21RequirePlanetsForStarE
    ?Reset@DatabasePackedFile_addresses@Resource@@3IB=_ZN8Resource28DatabasePackedFile_addresses5ResetE
    ?Reset@MaterialShader_addresses@Graphics@@3IB=_ZN8Graphics24MaterialShader_addresses5ResetE
    ?Reset@PFIndexModifiable_addresses@Resource@@3IB=_ZN8Resource27PFIndexModifiable_addresses5ResetE
    ?Reset@StandardShader_addresses@Graphics@@3IB=_ZN8Graphics24StandardShader_addresses5ResetE
    ?ResetRelationship@cRelationshipManager_addresses@Simulator@@3IB=_ZN9Simulator30cRelationshipManager_addresses17ResetRelationshipE
    ?ResetTypename@cResourceManager_addresses@Resource@@3IB=_ZN8Resource26cResourceManager_addresses13ResetTypenameE
    ?Resume@cGameTimeManager_addresses@Simulator@@3IB=_ZN9Simulator26cGameTimeManager_addresses6ResumeE
    ?Resume@cJob_addresses@App@@3IB=_ZN3App14cJob_addresses6ResumeE
    ?Revalidate@Window_addresses@UTFWin@@3IB=_ZN6UTFWin16Window_addresses10RevalidateE
    ?RevertLayout@ProportionalLayout_addresses@UTFWin@@3IB=_ZN6UTFWin28ProportionalLayout_addresses12RevertLayoutE
    ?RevertLayout@SimpleLayout_addresses@UTFWin@@3IB=_ZN6UTFWin22SimpleLayout_addresses12RevertLayoutE
    ?RotateModel@AdvancedItemViewer_addresses@Palettes@@3IB=_ZN8Palettes28AdvancedItemViewer_addresses11RotateModelE
    ?Run@cSporeApp_addresses@App@@3IB=_ZN3App19cSporeApp_addresses3RunE
    ?Save@DatabasePackedFile_addresses@Resource@@3IB=_ZN8Resource28DatabasePackedFile_addresses4SaveE
    ?Save@EditorModel_addresses@Editors@@3IB=_ZN7Editors21EditorModel_addresses4SaveE
    ?SaveNamedResource@Resource_addresses@@3IB=_ZN18Resource_addresses17SaveNamedResourceE
    ?SavePNG@Thumbnail_cImportExport_addresses@App@@3IB=_ZN3App33Thumbnail_cImportExport_addresses7SavePNGE
    ?SelectedUpdate@cPlaceColonyToolStrategy_addresses@Simulator@@3IB=_ZN9Simulator34cPlaceColonyToolStrategy_addresses14SelectedUpdateE
    ?SelectedUpdate@cPlaceObjectToolStrategy_addresses@Simulator@@3IB=_ZN9Simulator34cPlaceObjectToolStrategy_addresses14SelectedUpdateE
    ?SelectedUpdate@cToolStrategy_addresses@Simulator@@3IB=_ZN9Simulator23cToolStrategy_addresses14SelectedUpdateE
    ?SendMsg@Window_addresses@UTFWin@@3IB=_ZN6UTFWin16Window_addresses7SendMsgE
    ?SendToBack@Window_addresses@UTFWin@@3IB=_ZN6UTFWin16Window_addresses10SendToBackE
    ?Set@Property_addresses@App@@3IB=_ZN3App18Property_addresses11SetValueKeyE
    ?Set@cAssetMetadata_addresses@Pollinator@@3IB=_ZN10Pollinator24cAssetMetadata_addresses3SetE
    ?SetAbilityMode@cCreatureGameData_addresses@Simulator@@3IB=_ZN9Simulator27cCreatureGameData_addresses14SetAbilityModeE
    ?SetActive@Canvas_addresses@App@@3IB=_ZN3App16Canvas_addresses9SetActiveE
    ?SetActiveCamera@cCameraManager_addresses@App@@3IB=_ZN3App24cCameraManager_addresses15SetActiveCameraE
    ?SetActiveCameraByID@cCameraManager_addresses@App@@3IB=_ZN3App24cCameraManager_addresses19SetActiveCameraByIDE
    ?SetActiveCameraByKey@cCameraManager_addresses@App@@3IB=_ZN3App24cCameraManager_addresses20SetActiveCameraByKeyE
    ?SetActiveCategory@PaletteUI_addresses@Palettes@@3IB=_ZN8Palettes19PaletteUI_addresses17SetActiveCategoryE
    ?SetActiveCursor@cCursorManager_addresses@UTFWin@@3IB=_ZN6UTFWin24cCursorManager_addresses15SetActiveCursorE
    ?SetActiveMode@cEditor_addresses@Editors@@3IB=_ZN7Editors17cEditor_addresses13SetActiveModeE
    ?SetActiveMode@cGameModeManager_addresses@App@@3IB=_ZN3App26cGameModeManager_addresses13SetActiveModeE
    ?SetActiveModeAt@cGameModeManager_addresses@App@@3IB=_ZN3App26cGameModeManager_addresses15SetActiveModeAtE
    ?SetActiveModeByName@cGameModeManager_addresses@App@@3IB=_ZN3App26cGameModeManager_addresses19SetActiveModeByNameE
    ?SetActivePalette@SpaceGameUI_addresses@UI@@3IB=_ZN2UI21SpaceGameUI_addresses16SetActivePaletteE
    ?SetAlignmentHorizontal@ImageDrawable_addresses@UTFWin@@3IB=_ZN6UTFWin23ImageDrawable_addresses22SetAlignmentHorizontalE
    ?SetAlignmentVertical@ImageDrawable_addresses@UTFWin@@3IB=_ZN6UTFWin23ImageDrawable_addresses20SetAlignmentVerticalE
    ?SetArea@ColorSwatchUI_addresses@Palettes@@3IB=_ZN8Palettes23ColorSwatchUI_addresses7SetAreaE
    ?SetArea@Window_addresses@UTFWin@@3IB=_ZN6UTFWin16Window_addresses7SetAreaE
    ?SetAspectRatio@cViewer_addresses@App@@3IB=_ZN3App17cViewer_addresses14SetAspectRatioE
    ?SetAssetDataFactory@class_B8_addresses@Sporepedia@@3IB=_ZN10Sporepedia18class_B8_addresses19SetAssetDataFactoryE
    ?SetAssetMetadata@cSPAssetDataOTDB_addresses@Sporepedia@@3IB=_ZN10Sporepedia26cSPAssetDataOTDB_addresses16SetAssetMetadataE
    ?SetAtmosphereColor@cScenarioTerraformMode_addresses@Simulator@@3IB=_ZN9Simulator32cScenarioTerraformMode_addresses18SetAtmosphereColorE
    ?SetAutoRotate@AdvancedItemViewer_addresses@Palettes@@3IB=_ZN8Palettes28AdvancedItemViewer_addresses13SetAutoRotateE
    ?SetAvatar@cGameNounManager_addresses@Simulator@@3IB=_ZN9Simulator26cGameNounManager_addresses9SetAvatarE
    ?SetBackground@Image_addresses@UTFWin@@3IB=_ZN6UTFWin15Image_addresses13SetBackgroundE
    ?SetBackgroundByKey@Image_addresses@UTFWin@@3IB=_ZN6UTFWin15Image_addresses18SetBackgroundByKeyE
    ?SetBackgroundColor@DialogDrawable_addresses@UTFWin@@3IB=_ZN6UTFWin24DialogDrawable_addresses18SetBackgroundColorE
    ?SetBackgroundColor@cViewer_addresses@App@@3IB=_ZN3App17cViewer_addresses18SetBackgroundColorE
    ?SetBackgroundTiling@DialogDrawable_addresses@UTFWin@@3IB=_ZN6UTFWin24DialogDrawable_addresses19SetBackgroundTilingE
    ?SetBeachColor@cScenarioTerraformMode_addresses@Simulator@@3IB=_ZN9Simulator32cScenarioTerraformMode_addresses13SetBeachColorE
    ?SetBool@DirectPropertyList_addresses@App@@3IB=_ZN3App28DirectPropertyList_addresses7SetBoolE
    ?SetBufferSizes@StreamBuffer_addresses@IO@@3IB=_ZN2IO22StreamBuffer_addresses14SetBufferSizesE
    ?SetCameraMaterialLODs@cViewer_addresses@App@@3IB=_ZN3App17cViewer_addresses21SetCameraMaterialLODsE
    ?SetCaption@Canvas_addresses@App@@3IB=_ZN3App16Canvas_addresses10SetCaptionE
    ?SetCaption@Window_addresses@UTFWin@@3IB=_ZN6UTFWin16Window_addresses10SetCaptionE
    ?SetClientArea@Canvas_addresses@App@@3IB=_ZN3App16Canvas_addresses13SetClientAreaE
    ?SetCliffColor@cScenarioTerraformMode_addresses@Simulator@@3IB=_ZN9Simulator32cScenarioTerraformMode_addresses13SetCliffColorE
    ?SetColor@ColorPickerUI_addresses@Palettes@@3IB=_ZN8Palettes23ColorPickerUI_addresses8SetColorE
    ?SetColor@EditorModel_addresses@Editors@@3IB=_ZN7Editors21EditorModel_addresses8SetColorE
    ?SetColorWriteEnable@cSkinnerTexturePainter_addresses@Skinner@@3IB=_ZN7Skinner32cSkinnerTexturePainter_addresses19SetColorWriteEnableE
    ?SetColors@ModulateEffect_addresses@UTFWin@@3IB=_ZN6UTFWin24ModulateEffect_addresses9SetColorsE
    ?SetCommandID@Window_addresses@UTFWin@@3IB=_ZN6UTFWin16Window_addresses12SetCommandIDE
    ?SetControlID@Window_addresses@UTFWin@@3IB=_ZN6UTFWin16Window_addresses12SetControlIDE
    ?SetCreatureToNeutralPose@cEditor_addresses@Editors@@3IB=_ZN7Editors17cEditor_addresses24SetCreatureToNeutralPoseE
    ?SetCurrentAct@cScenarioPlayMode_addresses@Simulator@@3IB=_ZN9Simulator27cScenarioPlayMode_addresses13SetCurrentActE
    ?SetCursorID@Window_addresses@UTFWin@@3IB=_ZN6UTFWin16Window_addresses11SetCursorIDE
    ?SetDamping@BiStateEffect_addresses@UTFWin@@3IB=_ZN6UTFWin23BiStateEffect_addresses10SetDampingE
    ?SetData@FixedMemoryStream_addresses@IO@@3IB=_ZN2IO27FixedMemoryStream_addresses7SetDataE
    ?SetData@FormatParser_addresses@ArgScript@@3IB=_ZN9ArgScript22FormatParser_addresses7SetDataE
    ?SetData@MemoryStream_addresses@IO@@3IB=_ZN2IO22MemoryStream_addresses10SetDataRawE
    ?SetDataRaw@MemoryStream_addresses@IO@@3IB=_ZN2IO22MemoryStream_addresses10SetDataRawE
    ?SetDayDuration@cTimeOfDay_addresses@Simulator@@3IB=_ZN9Simulator20cTimeOfDay_addresses14SetDayDurationE
    ?SetDefinitionID@cGameData_addresses@Simulator@@3IB=_ZN9Simulator19cGameData_addresses15SetDefinitionIDE
    ?SetDelay@CascadeEffect_addresses@UTFWin@@3IB=_ZN6UTFWin23CascadeEffect_addresses8SetDelayE
    ?SetDescription@EditorModel_addresses@Editors@@3IB=_ZN7Editors21EditorModel_addresses14SetDescriptionE
    ?SetDescription@cUIEventLog_addresses@Simulator@@3IB=_ZN9Simulator21cUIEventLog_addresses14SetDescriptionE
    ?SetDevMode@cPropManager_addresses@App@@3IB=_ZN3App22cPropManager_addresses10SetDevModeE
    ?SetDrawable@Window_addresses@UTFWin@@3IB=_ZN6UTFWin16Window_addresses11SetDrawableE
    ?SetEase@BiStateEffect_addresses@UTFWin@@3IB=_ZN6UTFWin23BiStateEffect_addresses7SetEaseE
    ?SetEditorModel@cEditor_addresses@Editors@@3IB=_ZN7Editors17cEditor_addresses14SetEditorModelE
    ?SetEffectCollectionIDs@cAppSystem_addresses@App@@3IB=_ZN3App20cAppSystem_addresses22SetEffectCollectionIDsE
    ?SetEvolutionPoints@cCreatureGameData_addresses@Simulator@@3IB=_ZN9Simulator27cCreatureGameData_addresses18SetEvolutionPointsE
    ?SetExtended@EditorNamePanel_addresses@UI@@3IB=_ZN2UI25EditorNamePanel_addresses11SetExtendedE
    ?SetFarPlane@cViewer_addresses@App@@3IB=_ZN3App17cViewer_addresses11SetFarPlaneE
    ?SetFileName@cResourceManager_addresses@Resource@@3IB=_ZN8Resource26cResourceManager_addresses11SetFileNameE
    ?SetFillColor@Window_addresses@UTFWin@@3IB=_ZN6UTFWin16Window_addresses12SetFillColorE
    ?SetFixedStepping@cAppSystem_addresses@App@@3IB=_ZN3App20cAppSystem_addresses16SetFixedSteppingE
    ?SetFlag@FormatParser_addresses@ArgScript@@3IB=_ZN9ArgScript22FormatParser_addresses7SetFlagE
    ?SetFlag@Window_addresses@UTFWin@@3IB=_ZN6UTFWin16Window_addresses7SetFlagE
    ?SetFloat@DirectPropertyList_addresses@App@@3IB=_ZN3App28DirectPropertyList_addresses8SetFloatE
    ?SetFullscreen@Canvas_addresses@App@@3IB=_ZN3App16Canvas_addresses13SetFullscreenE
    ?SetGameDataOwner2@cGameData_addresses@Simulator@@3IB=_ZN9Simulator19cGameData_addresses17SetGameDataOwner2E
    ?SetGameDataOwner@cGameData_addresses@Simulator@@3IB=_ZN9Simulator19cGameData_addresses16SetGameDataOwnerE
    ?SetGlobalVariable@FormatParser_addresses@ArgScript@@3IB=_ZN9ArgScript22FormatParser_addresses17SetGlobalVariableE
    ?SetHitFactor@StdDrawable_addresses@UTFWin@@3IB=_ZN6UTFWin21StdDrawable_addresses12SetHitFactorE
    ?SetHitMask@StdDrawable_addresses@UTFWin@@3IB=_ZN6UTFWin21StdDrawable_addresses10SetHitMaskE
    ?SetImage@ButtonDrawableRadio_addresses@UTFWin@@3IB=_ZN6UTFWin29ButtonDrawableRadio_addresses8SetImageE
    ?SetImage@ButtonDrawableStandard_addresses@UTFWin@@3IB=_ZN6UTFWin32ButtonDrawableStandard_addresses8SetImageE
    ?SetImage@ComboBoxDrawable_addresses@UTFWin@@3IB=_ZN6UTFWin26ComboBoxDrawable_addresses8SetImageE
    ?SetImage@DialogDrawable_addresses@UTFWin@@3IB=_ZN6UTFWin24DialogDrawable_addresses8SetImageE
    ?SetImage@ImageDrawable_addresses@UTFWin@@3IB=_ZN6UTFWin23ImageDrawable_addresses20SetImageDrawableFlagE
    ?SetImage@ScrollbarDrawable_addresses@UTFWin@@3IB=_ZN6UTFWin27ScrollbarDrawable_addresses8SetImageE
    ?SetImage@SliderDrawable_addresses@UTFWin@@3IB=_ZN6UTFWin24SliderDrawable_addresses8SetImageE
    ?SetImage@SpinnerDrawable_addresses@UTFWin@@3IB=_ZN6UTFWin25SpinnerDrawable_addresses8SetImageE
    ?SetImage@StdDrawable_addresses@UTFWin@@3IB=_ZN6UTFWin21StdDrawable_addresses8SetImageE
    ?SetImageDrawableFlag@ImageDrawable_addresses@UTFWin@@3IB=_ZN6UTFWin23ImageDrawable_addresses20SetImageDrawableFlagE
    ?SetImageDrawableFlags@ImageDrawable_addresses@UTFWin@@3IB=_ZN6UTFWin23ImageDrawable_addresses21SetImageDrawableFlagsE
    ?SetIndexBuffer@Mesh_addresses@RenderWare@@3IB=_ZN10RenderWare14Mesh_addresses14SetIndexBufferE
    ?SetIndicesCount@Mesh_addresses@RenderWare@@3IB=_ZN10RenderWare14Mesh_addresses15SetIndicesCountE
    ?SetInt@DirectPropertyList_addresses@App@@3IB=_ZN3App28DirectPropertyList_addresses6SetIntE
    ?SetInterpolationType@BiStateEffect_addresses@UTFWin@@3IB=_ZN6UTFWin23BiStateEffect_addresses20SetInterpolationTypeE
    ?SetInterval@CascadeEffect_addresses@UTFWin@@3IB=_ZN6UTFWin23CascadeEffect_addresses11SetIntervalE
    ?SetIsSaved@PFIndexModifiable_addresses@Resource@@3IB=_ZN8Resource27PFIndexModifiable_addresses10SetIsSavedE
    ?SetKey@PFRecordRead_addresses@Resource@@3IB=_ZN8Resource22PFRecordRead_addresses6SetKeyE
    ?SetKey@PFRecordWrite_addresses@Resource@@3IB=_ZN8Resource23PFRecordWrite_addresses6SetKeyE
    ?SetKey@cSPAssetDataOTDB_addresses@Sporepedia@@3IB=_ZN10Sporepedia26cSPAssetDataOTDB_addresses14SetKeyInternalE
    ?SetKeyInternal@cSPAssetDataOTDB_addresses@Sporepedia@@3IB=_ZN10Sporepedia26cSPAssetDataOTDB_addresses14SetKeyInternalE
    ?SetKeyName@cResourceManager_addresses@Resource@@3IB=_ZN8Resource26cResourceManager_addresses10SetKeyNameE
    ?SetLayoutArea@Window_addresses@UTFWin@@3IB=_ZN6UTFWin16Window_addresses13SetLayoutAreaE
    ?SetLayoutLocation@Window_addresses@UTFWin@@3IB=_ZN6UTFWin16Window_addresses17SetLayoutLocationE
    ?SetLayoutSize@Window_addresses@UTFWin@@3IB=_ZN6UTFWin16Window_addresses13SetLayoutSizeE
    ?SetLocation@DatabaseDirectoryFiles_addresses@Resource@@3IB=_ZN8Resource32DatabaseDirectoryFiles_addresses11SetLocationE
    ?SetLocation@DatabasePackedFile_addresses@Resource@@3IB=_ZN8Resource28DatabasePackedFile_addresses11SetLocationE
    ?SetLocation@Window_addresses@UTFWin@@3IB=_ZN6UTFWin16Window_addresses11SetLocationE
    ?SetLocomotion@cPlanetaryArtifact_addresses@Simulator@@3IB=_ZN9Simulator28cPlanetaryArtifact_addresses13SetLocomotionE
    ?SetMessageServer@Canvas_addresses@App@@3IB=_ZN3App16Canvas_addresses16SetMessageServerE
    ?SetMode@Clock_addresses@@3IB=_ZN15Clock_addresses7SetModeE
    ?SetName@AdvancedItemViewer_addresses@Palettes@@3IB=_ZN8Palettes28AdvancedItemViewer_addresses7SetNameE
    ?SetName@EditorModel_addresses@Editors@@3IB=_ZN7Editors21EditorModel_addresses7SetNameE
    ?SetName@PFRecordRead_addresses@Resource@@3IB=_ZN8Resource22PFRecordRead_addresses7SetNameE
    ?SetName@PFRecordWrite_addresses@Resource@@3IB=_ZN8Resource23PFRecordWrite_addresses7SetNameE
    ?SetNearPlane@PerspectiveEffect_addresses@UTFWin@@3IB=_ZN6UTFWin27PerspectiveEffect_addresses12SetNearPlaneE
    ?SetNearPlane@cViewer_addresses@App@@3IB=_ZN3App17cViewer_addresses12SetNearPlaneE
    ?SetObject@cLayoutSlot_addresses@Simulator@@3IB=_ZN9Simulator21cLayoutSlot_addresses9SetObjectE
    ?SetOffset@GlideEffect_addresses@UTFWin@@3IB=_ZN6UTFWin21GlideEffect_addresses9SetOffsetE
    ?SetOption@MemoryStream_addresses@IO@@3IB=_ZN2IO22MemoryStream_addresses9SetOptionE
    ?SetOption@cMessageManager_addresses@App@@3IB=_ZN3App25cMessageManager_addresses9SetOptionE
    ?SetOptions@Canvas_addresses@App@@3IB=_ZN3App16Canvas_addresses10SetOptionsE
    ?SetPackageForSaveDirectory@AppData_addresses@App@@3IB=_ZN3App17AppData_addresses26SetPackageForSaveDirectoryE
    ?SetParallelProjection@cViewer_addresses@App@@3IB=_ZN3App17cViewer_addresses21SetParallelProjectionE
    ?SetParameter@cSPAssetDataOTDB_addresses@Sporepedia@@3IB=_ZN10Sporepedia26cSPAssetDataOTDB_addresses12SetParameterE
    ?SetParameters@cCommunityLayout_addresses@Simulator@@3IB=_ZN9Simulator26cCommunityLayout_addresses13SetParametersE
    ?SetParent@PropertyList_addresses@App@@3IB=_ZN3App22PropertyList_addresses9SetParentE
    ?SetParentWindow@UILayout_addresses@UTFWin@@3IB=_ZN6UTFWin18UILayout_addresses15SetParentWindowE
    ?SetPath@DatabasePackedFile_addresses@Resource@@3IB=_ZN8Resource28DatabasePackedFile_addresses7SetPathE
    ?SetPath@FileStream_addresses@IO@@3IB=_ZN2IO20FileStream_addresses14SetPathCStringE
    ?SetPathCString@FileStream_addresses@IO@@3IB=_ZN2IO20FileStream_addresses14SetPathCStringE
    ?SetPerspectiveProjection@cViewer_addresses@App@@3IB=_ZN3App17cViewer_addresses24SetPerspectiveProjectionE
    ?SetPosition@Canvas_addresses@App@@3IB=_ZN3App16Canvas_addresses11SetPositionE
    ?SetPosition@FileStream_addresses@IO@@3IB=_ZN2IO20FileStream_addresses11SetPositionE
    ?SetPosition@FixedMemoryStream_addresses@IO@@3IB=_ZN2IO27FixedMemoryStream_addresses11SetPositionE
    ?SetPosition@MemoryStream_addresses@IO@@3IB=_ZN2IO22MemoryStream_addresses11SetPositionE
    ?SetPosition@PFRecordRead_addresses@Resource@@3IB=_ZN8Resource22PFRecordRead_addresses11SetPositionE
    ?SetPosition@PFRecordWrite_addresses@Resource@@3IB=_ZN8Resource23PFRecordWrite_addresses11SetPositionE
    ?SetPosition@StreamBuffer_addresses@IO@@3IB=_ZN2IO22StreamBuffer_addresses11SetPositionE
    ?SetPosition@StreamChild_addresses@IO@@3IB=_ZN2IO21StreamChild_addresses11SetPositionE
    ?SetPosition@StreamNull_addresses@IO@@3IB=_ZN2IO20StreamNull_addresses11SetPositionE
    ?SetPresentationParameters@RenderUtils_addresses@Graphics@@3IB=_ZN8Graphics21RenderUtils_addresses25SetPresentationParametersE
    ?SetPresentationParameters@Renderer_addresses@Graphics@@3IB=_ZN8Graphics18Renderer_addresses25SetPresentationParametersE
    ?SetProgressFlags@cAchievementsManager_addresses@Pollinator@@3IB=_ZN10Pollinator30cAchievementsManager_addresses16SetProgressFlagsE
    ?SetPropList@cSpaceInventoryItem_addresses@Simulator@@3IB=_ZN9Simulator29cSpaceInventoryItem_addresses11SetPropListE
    ?SetProperty@Audio_addresses@@3IB=_ZN15Audio_addresses11SetPropertyE
    ?SetProperty@DirectPropertyList_addresses@App@@3IB=_ZN3App28DirectPropertyList_addresses11SetPropertyE
    ?SetProperty@PropertyList_addresses@App@@3IB=_ZN3App22PropertyList_addresses11SetPropertyE
    ?SetPropertyList@cPropManager_addresses@App@@3IB=_ZN3App22cPropManager_addresses15SetPropertyListE
    ?SetPropertyString@Audio_addresses@@3IB=_ZN15Audio_addresses17SetPropertyStringE
    ?SetRareAsFound@cSpaceTrading_addresses@Simulator@@3IB=_ZN9Simulator23cSpaceTrading_addresses14SetRareAsFoundE
    ?SetRaster@CompiledState_addresses@RenderWare@@3IB=_ZN10RenderWare23CompiledState_addresses9SetRasterE
    ?SetRenderType@cViewer_addresses@App@@3IB=_ZN3App17cViewer_addresses13SetRenderTypeE
    ?SetRepresentationMode@cPlanet_addresses@Simulator@@3IB=_ZN9Simulator17cPlanet_addresses21SetRepresentationModeE
    ?SetResourceFactory@cResourceManager_addresses@Resource@@3IB=_ZN8Resource26cResourceManager_addresses18SetResourceFactoryE
    ?SetResourceManager@DatabasePackedFile_addresses@Resource@@3IB=_ZN8Resource28DatabasePackedFile_addresses18SetResourceManagerE
    ?SetRotationAngle@RotateEffect_addresses@UTFWin@@3IB=_ZN6UTFWin22RotateEffect_addresses16SetRotationAngleE
    ?SetRotationAxis@RotateEffect_addresses@UTFWin@@3IB=_ZN6UTFWin22RotateEffect_addresses15SetRotationAxisE
    ?SetScale@ImageDrawable_addresses@UTFWin@@3IB=_ZN6UTFWin23ImageDrawable_addresses8SetScaleE
    ?SetScale@InflateEffect_addresses@UTFWin@@3IB=_ZN6UTFWin23InflateEffect_addresses8SetScaleE
    ?SetScaleArea@StdDrawable_addresses@UTFWin@@3IB=_ZN6UTFWin21StdDrawable_addresses12SetScaleAreaE
    ?SetScaleFactor@StdDrawable_addresses@UTFWin@@3IB=_ZN6UTFWin21StdDrawable_addresses14SetScaleFactorE
    ?SetScaleType@StdDrawable_addresses@UTFWin@@3IB=_ZN6UTFWin21StdDrawable_addresses12SetScaleTypeE
    ?SetSerializer@BiStateEffect_addresses@UTFWin@@3IB=_ZN6UTFWin23BiStateEffect_addresses13SetSerializerE
    ?SetSerializer@ButtonDrawableRadio_addresses@UTFWin@@3IB=_ZN6UTFWin29ButtonDrawableRadio_addresses13SetSerializerE
    ?SetSerializer@ButtonDrawableStandard_addresses@UTFWin@@3IB=_ZN6UTFWin32ButtonDrawableStandard_addresses13SetSerializerE
    ?SetSerializer@CascadeEffect_addresses@UTFWin@@3IB=_ZN6UTFWin23CascadeEffect_addresses13SetSerializerE
    ?SetSerializer@ComboBoxDrawable_addresses@UTFWin@@3IB=_ZN6UTFWin26ComboBoxDrawable_addresses13SetSerializerE
    ?SetSerializer@DialogDrawable_addresses@UTFWin@@3IB=_ZN6UTFWin24DialogDrawable_addresses13SetSerializerE
    ?SetSerializer@FadeEffect_addresses@UTFWin@@3IB=_ZN6UTFWin20FadeEffect_addresses13SetSerializerE
    ?SetSerializer@FrameDrawable_addresses@UTFWin@@3IB=_ZN6UTFWin23FrameDrawable_addresses13SetSerializerE
    ?SetSerializer@GlideEffect_addresses@UTFWin@@3IB=_ZN6UTFWin21GlideEffect_addresses13SetSerializerE
    ?SetSerializer@ImageDrawable_addresses@UTFWin@@3IB=_ZN6UTFWin23ImageDrawable_addresses13SetSerializerE
    ?SetSerializer@Image_addresses@UTFWin@@3IB=_ZN6UTFWin15Image_addresses13SetSerializerE
    ?SetSerializer@InflateEffect_addresses@UTFWin@@3IB=_ZN6UTFWin23InflateEffect_addresses13SetSerializerE
    ?SetSerializer@ModulateEffect_addresses@UTFWin@@3IB=_ZN6UTFWin24ModulateEffect_addresses13SetSerializerE
    ?SetSerializer@PerspectiveEffect_addresses@UTFWin@@3IB=_ZN6UTFWin27PerspectiveEffect_addresses13SetSerializerE
    ?SetSerializer@ProportionalLayout_addresses@UTFWin@@3IB=_ZN6UTFWin28ProportionalLayout_addresses13SetSerializerE
    ?SetSerializer@RotateEffect_addresses@UTFWin@@3IB=_ZN6UTFWin22RotateEffect_addresses13SetSerializerE
    ?SetSerializer@ScrollbarDrawable_addresses@UTFWin@@3IB=_ZN6UTFWin27ScrollbarDrawable_addresses13SetSerializerE
    ?SetSerializer@SimpleLayout_addresses@UTFWin@@3IB=_ZN6UTFWin22SimpleLayout_addresses13SetSerializerE
    ?SetSerializer@SliderDrawable_addresses@UTFWin@@3IB=_ZN6UTFWin24SliderDrawable_addresses13SetSerializerE
    ?SetSerializer@SpinnerDrawable_addresses@UTFWin@@3IB=_ZN6UTFWin25SpinnerDrawable_addresses13SetSerializerE
    ?SetSerializer@SporeStdDrawableImageInfo_addresses@UTFWin@@3IB=_ZN6UTFWin35SporeStdDrawableImageInfo_addresses13SetSerializerE
    ?SetSerializer@SporeStdDrawable_addresses@UTFWin@@3IB=_ZN6UTFWin26SporeStdDrawable_addresses13SetSerializerE
    ?SetSerializer@SporeTooltipWinProc_addresses@UTFWin@@3IB=_ZN6UTFWin29SporeTooltipWinProc_addresses13SetSerializerE
    ?SetSerializer@StdDrawable_addresses@UTFWin@@3IB=_ZN6UTFWin21StdDrawable_addresses13SetSerializerE
    ?SetSerializer@TreeNode_addresses@UTFWin@@3IB=_ZN6UTFWin18TreeNode_addresses13SetSerializerE
    ?SetSerializer@VariableWidthDrawable_addresses@UTFWin@@3IB=_ZN6UTFWin31VariableWidthDrawable_addresses13SetSerializerE
    ?SetSerializer@Window_addresses@UTFWin@@3IB=_ZN6UTFWin16Window_addresses13SetSerializerE
    ?SetShadeColor@Window_addresses@UTFWin@@3IB=_ZN6UTFWin16Window_addresses13SetShadeColorE
    ?SetShadedDisplay@EditorRigblock_addresses@Editors@@3IB=_ZN7Editors24EditorRigblock_addresses16SetShadedDisplayE
    ?SetShaderData@ActiveState_addresses@Graphics@@3IB=_ZN8Graphics21ActiveState_addresses13SetShaderDataE
    ?SetShaderData@RenderUtils_addresses@Graphics@@3IB=_ZN8Graphics21RenderUtils_addresses13SetShaderDataE
    ?SetShaderData@Renderer_addresses@Graphics@@3IB=_ZN8Graphics18Renderer_addresses13SetShaderDataE
    ?SetSize@FileStream_addresses@IO@@3IB=_ZN2IO20FileStream_addresses7SetSizeE
    ?SetSize@FixedMemoryStream_addresses@IO@@3IB=_ZN2IO27FixedMemoryStream_addresses7SetSizeE
    ?SetSize@MemoryStream_addresses@IO@@3IB=_ZN2IO22MemoryStream_addresses7SetSizeE
    ?SetSize@PFRecordRead_addresses@Resource@@3IB=_ZN8Resource22PFRecordRead_addresses7SetSizeE
    ?SetSize@PFRecordWrite_addresses@Resource@@3IB=_ZN8Resource23PFRecordWrite_addresses7SetSizeE
    ?SetSize@StreamBuffer_addresses@IO@@3IB=_ZN2IO22StreamBuffer_addresses7SetSizeE
    ?SetSize@StreamChild_addresses@IO@@3IB=_ZN2IO21StreamChild_addresses7SetSizeE
    ?SetSize@StreamNull_addresses@IO@@3IB=_ZN2IO20StreamNull_addresses7SetSizeE
    ?SetSize@Window_addresses@UTFWin@@3IB=_ZN6UTFWin16Window_addresses7SetSizeE
    ?SetSpeciesProfile@cEmpire_addresses@Simulator@@3IB=_ZN9Simulator17cEmpire_addresses17SetSpeciesProfileE
    ?SetSpeed@cGameTimeManager_addresses@Simulator@@3IB=_ZN9Simulator26cGameTimeManager_addresses8SetSpeedE
    ?SetSpeedMultiplier@cTimeOfDay_addresses@Simulator@@3IB=_ZN9Simulator20cTimeOfDay_addresses18SetSpeedMultiplierE
    ?SetState@Window_addresses@UTFWin@@3IB=_ZN6UTFWin16Window_addresses8SetStateE
    ?SetStream@DatabasePackedFile_addresses@Resource@@3IB=_ZN8Resource28DatabasePackedFile_addresses9SetStreamE
    ?SetStream@StreamBuffer_addresses@IO@@3IB=_ZN2IO22StreamBuffer_addresses9SetStreamE
    ?SetStyle@Canvas_addresses@App@@3IB=_ZN3App16Canvas_addresses8SetStyleE
    ?SetSummary@cSPAssetDataOTDB_addresses@Sporepedia@@3IB=_ZN10Sporepedia26cSPAssetDataOTDB_addresses10SetSummaryE
    ?SetSystemCursorVisible@Canvas_addresses@App@@3IB=_ZN3App16Canvas_addresses22SetSystemCursorVisibleE
    ?SetTargetAngle@cEditorAnimWorld_addresses@Editors@@3IB=_ZN7Editors26cEditorAnimWorld_addresses14SetTargetAngleE
    ?SetTargetPosition@CreatureWalkController_addresses@Editors@@3IB=_ZN7Editors32CreatureWalkController_addresses17SetTargetPositionE
    ?SetTargetPosition@EditorCreatureController_addresses@Editors@@3IB=_ZN7Editors34EditorCreatureController_addresses17SetTargetPositionE
    ?SetTargetPosition@cEditorAnimWorld_addresses@Editors@@3IB=_ZN7Editors26cEditorAnimWorld_addresses17SetTargetPositionE
    ?SetText@LocalizedString_addresses@@3IB=_ZN25LocalizedString_addresses7SetTextE
    ?SetTextFontID@Window_addresses@UTFWin@@3IB=_ZN6UTFWin16Window_addresses13SetTextFontIDE
    ?SetTexture@ActiveState_addresses@Graphics@@3IB=_ZN8Graphics21ActiveState_addresses10SetTextureE
    ?SetTexture@RenderUtils_addresses@Graphics@@3IB=_ZN8Graphics21RenderUtils_addresses10SetTextureE
    ?SetTexture@Renderer_addresses@Graphics@@3IB=_ZN8Graphics18Renderer_addresses10SetTextureE
    ?SetTexture@TextureSlot_addresses@RenderWare@@3IB=_ZN10RenderWare21TextureSlot_addresses10SetTextureE
    ?SetTiling@ImageDrawable_addresses@UTFWin@@3IB=_ZN6UTFWin23ImageDrawable_addresses9SetTilingE
    ?SetTime@BiStateEffect_addresses@UTFWin@@3IB=_ZN6UTFWin23BiStateEffect_addresses7SetTimeE
    ?SetTimeOfDay@cTimeOfDay_addresses@Simulator@@3IB=_ZN9Simulator20cTimeOfDay_addresses12SetTimeOfDayE
    ?SetTimeScale@cAppSystem_addresses@App@@3IB=_ZN3App20cAppSystem_addresses12SetTimeScaleE
    ?SetTraceStream@FormatParser_addresses@ArgScript@@3IB=_ZN9ArgScript22FormatParser_addresses14SetTraceStreamE
    ?SetTransform@GlobalState_addresses@Graphics@@3IB=_ZN8Graphics21GlobalState_addresses12SetTransformE
    ?SetTriggerType@BiStateEffect_addresses@UTFWin@@3IB=_ZN6UTFWin23BiStateEffect_addresses14SetTriggerTypeE
    ?SetTypeMapping@cResourceManager_addresses@Resource@@3IB=_ZN8Resource26cResourceManager_addresses14SetTypeMappingE
    ?SetTypeRemap@cResourceManager_addresses@Resource@@3IB=_ZN8Resource26cResourceManager_addresses12SetTypeRemapE
    ?SetTypename@cResourceManager_addresses@Resource@@3IB=_ZN8Resource26cResourceManager_addresses11SetTypenameE
    ?SetUnloadTime@cSwatchManager_addresses@Palettes@@3IB=_ZN8Palettes24cSwatchManager_addresses13SetUnloadTimeE
    ?SetUserDirNames@cAppSystem_addresses@App@@3IB=_ZN3App20cAppSystem_addresses15SetUserDirNamesE
    ?SetValue@cArithmeticaResource_addresses@App@@3IB=_ZN3App30cArithmeticaResource_addresses8SetValueE
    ?SetValueBBox@Property_addresses@App@@3IB=_ZN3App18Property_addresses12SetValueBBoxE
    ?SetValueBool@Property_addresses@App@@3IB=_ZN3App18Property_addresses12SetValueBoolE
    ?SetValueColorRGB@Property_addresses@App@@3IB=_ZN3App18Property_addresses16SetValueColorRGBE
    ?SetValueColorRGBA@Property_addresses@App@@3IB=_ZN3App18Property_addresses17SetValueColorRGBAE
    ?SetValueFloat@Property_addresses@App@@3IB=_ZN3App18Property_addresses13SetValueFloatE
    ?SetValueInt32@Property_addresses@App@@3IB=_ZN3App18Property_addresses13SetValueInt32E
    ?SetValueKey@Property_addresses@App@@3IB=_ZN3App18Property_addresses11SetValueKeyE
    ?SetValueString16@Property_addresses@App@@3IB=_ZN3App18Property_addresses16SetValueString16E
    ?SetValueString8@Property_addresses@App@@3IB=_ZN3App18Property_addresses15SetValueString8E
    ?SetValueUInt32@Property_addresses@App@@3IB=_ZN3App18Property_addresses14SetValueUInt32E
    ?SetValueVector2@Property_addresses@App@@3IB=_ZN3App18Property_addresses15SetValueVector2E
    ?SetValueVector3@Property_addresses@App@@3IB=_ZN3App18Property_addresses15SetValueVector3E
    ?SetValueVector4@Property_addresses@App@@3IB=_ZN3App18Property_addresses15SetValueVector4E
    ?SetVariable@FormatParser_addresses@ArgScript@@3IB=_ZN9ArgScript22FormatParser_addresses11SetVariableE
    ?SetVersionRange@FormatParser_addresses@ArgScript@@3IB=_ZN9ArgScript22FormatParser_addresses15SetVersionRangeE
    ?SetVertexBuffer@Mesh_addresses@RenderWare@@3IB=_ZN10RenderWare14Mesh_addresses15SetVertexBufferE
    ?SetViewOffset@cViewer_addresses@App@@3IB=_ZN3App17cViewer_addresses13SetViewOffsetE
    ?SetViewTransform@cViewer_addresses@App@@3IB=_ZN3App17cViewer_addresses16SetViewTransformE
    ?SetViewWindow@cViewer_addresses@App@@3IB=_ZN3App17cViewer_addresses13SetViewWindowE
    ?SetViewer@cCameraManager_addresses@App@@3IB=_ZN3App24cCameraManager_addresses9SetViewerE
    ?SetViewer@cGameModeManager_addresses@App@@3IB=_ZN3App26cGameModeManager_addresses9SetViewerE
    ?SetViewport@cViewer_addresses@App@@3IB=_ZN3App17cViewer_addresses11SetViewportE
    ?SetVisible@Canvas_addresses@App@@3IB=_ZN3App16Canvas_addresses10SetVisibleE
    ?SetVisible@ColorPickerUI_addresses@Palettes@@3IB=_ZN8Palettes23ColorPickerUI_addresses10SetVisibleE
    ?SetVisible@UILayout_addresses@UTFWin@@3IB=_ZN6UTFWin18UILayout_addresses10SetVisibleE
    ?SetVisible@cUIEventLog_addresses@Simulator@@3IB=_ZN9Simulator21cUIEventLog_addresses10SetVisibleE
    ?SetWaterColor@cScenarioTerraformMode_addresses@Simulator@@3IB=_ZN9Simulator32cScenarioTerraformMode_addresses13SetWaterColorE
    ?SetWindowVisible@PlayModeUI_addresses@Editors@@3IB=_ZN7Editors20PlayModeUI_addresses16SetWindowVisibleE
    ?SetZoom@AdvancedItemViewer_addresses@Palettes@@3IB=_ZN8Palettes28AdvancedItemViewer_addresses7SetZoomE
    ?ShaderData_ptr@RenderUtils_addresses@Graphics@@3IB=_ZN8Graphics21RenderUtils_addresses14ShaderData_ptrE
    ?ShaderData_ptr@Renderer_addresses@Graphics@@3IB=_ZN8Graphics18Renderer_addresses14ShaderData_ptrE
    ?ShouldNotAttack@Cell_addresses@Simulator@@3IB=_ZN9Simulator14Cell_addresses15ShouldNotAttackE
    ?ShouldNotAttack@cCellGame_addresses@Cell@Simulator@@3IB=_ZN9Simulator4Cell19cCellGame_addresses15ShouldNotAttackE
    ?Show@GameSettings_addresses@UI@@3IB=_ZN2UI22GameSettings_addresses4ShowE
    ?Show@ShopperRequest_addresses@Sporepedia@@3IB=_ZN10Sporepedia24ShopperRequest_addresses4ShowE
    ?ShowCommEvent@cCommManager_addresses@Simulator@@3IB=_ZN9Simulator22cCommManager_addresses13ShowCommEventE
    ?ShowCursor@cCursorManager_addresses@UTFWin@@3IB=_ZN6UTFWin24cCursorManager_addresses10ShowCursorE
    ?ShowDialog@cSPUIMessageBox_addresses@UTFWin@@3IB=_ZN6UTFWin25cSPUIMessageBox_addresses10ShowDialogE
    ?ShowDropCursorIcon@cCursorManager_addresses@UTFWin@@3IB=_ZN6UTFWin24cCursorManager_addresses18ShowDropCursorIconE
    ?ShowEvent@cUIEventLog_addresses@Simulator@@3IB=_ZN9Simulator21cUIEventLog_addresses9ShowEventE
    ?ShowEventLog@cSpaceToolData_addresses@Simulator@@3IB=_ZN9Simulator24cSpaceToolData_addresses12ShowEventLogE
    ?ShowHealthRollover@cCellUI_addresses@Cell@Simulator@@3IB=_ZN9Simulator4Cell17cCellUI_addresses18ShowHealthRolloverE
    ?ShowHint@cHintManager_addresses@UI@@3IB=_ZN2UI22cHintManager_addresses8ShowHintE
    ?Shutdown@Canvas_addresses@App@@3IB=_ZN3App16Canvas_addresses8ShutdownE
    ?Shutdown@cAppSystem_addresses@App@@3IB=_ZN3App20cAppSystem_addresses8ShutdownE
    ?Shutdown@cSporeApp_addresses@App@@3IB=_ZN3App19cSporeApp_addresses8ShutdownE
    ?SnapSlotsToPlanet@cCommunityLayout_addresses@Simulator@@3IB=_ZN9Simulator26cCommunityLayout_addresses17SnapSlotsToPlanetE
    ?SpaceTeleportTo@Simulator_addresses@@3IB=_ZN19Simulator_addresses15SpaceTeleportToE
    ?SpawnVehicle@cCity_addresses@Simulator@@3IB=_ZN9Simulator15cCity_addresses12SpawnVehicleE
    ?StarGenerationMessageHandler@cStarManager_addresses@Simulator@@3IB=_ZN9Simulator22cStarManager_addresses28StarGenerationMessageHandlerE
    ?Start@PaletteIterator_addresses@Palettes@@3IB=_ZN8Palettes25PaletteIterator_addresses5StartE
    ?StartDisplay@cCellGFX_addresses@Cell@Simulator@@3IB=_ZN9Simulator4Cell18cCellGFX_addresses12StartDisplayE
    ?StartHistoryEntry@cScenarioData_addresses@Simulator@@3IB=_ZN9Simulator23cScenarioData_addresses17StartHistoryEntryE
    ?StartHistoryEntry@cScenarioTerraformMode_addresses@Simulator@@3IB=_ZN9Simulator32cScenarioTerraformMode_addresses17StartHistoryEntryE
    ?StartOrStopEffectFromPool1@cCreatureBase_addresses@Simulator@@3IB=_ZN9Simulator23cCreatureBase_addresses26StartOrStopEffectFromPool1E
    ?StartOrStopEffectFromPool2@cCreatureBase_addresses@Simulator@@3IB=_ZN9Simulator23cCreatureBase_addresses26StartOrStopEffectFromPool2E
    ?StartRender@cSkinnerTexturePainter_addresses@Skinner@@3IB=_ZN7Skinner32cSkinnerTexturePainter_addresses11StartRenderE
    ?StartScope@FormatParser_addresses@ArgScript@@3IB=_ZN9ArgScript22FormatParser_addresses10StartScopeE
    ?Stop@Clock_addresses@@3IB=_ZN15Clock_addresses4StopE
    ?StopAudio@Audio_addresses@@3IB=_ZN15Audio_addresses9StopAudioE
    ?StopEffectFromPools@cCreatureBase_addresses@Simulator@@3IB=_ZN9Simulator23cCreatureBase_addresses19StopEffectFromPoolsE
    ?StreamCanContainFileData@DatabasePackedFile_addresses@Resource@@3IB=_ZN8Resource28DatabasePackedFile_addresses24StreamCanContainFileDataE
    ?Submit@EditorRequest_addresses@Editors@@3IB=_ZN7Editors23EditorRequest_addresses6SubmitE
    ?SubmitEditorRequest@cGameModeManager_addresses@Simulator@@3IB=_ZN9Simulator26cGameModeManager_addresses19SubmitEditorRequestE
    ?SwitchBackground@PlayModeBackgrounds_addresses@Editors@@3IB=_ZN7Editors29PlayModeBackgrounds_addresses16SwitchBackgroundE
    ?TerrainBakeInScatterTexture_ptr@Terrain_addresses@@3IB=_ZN17Terrain_addresses31TerrainBakeInScatterTexture_ptrE
    ?TerrainColorMapRTT_ID_ptr@Terrain_addresses@@3IB=_ZN17Terrain_addresses25TerrainColorMapRTT_ID_ptrE
    ?TerrainColorMapRTT_ptr@Terrain_addresses@@3IB=_ZN17Terrain_addresses22TerrainColorMapRTT_ptrE
    ?TerrainColorMapViewer_ptr@Terrain_addresses@@3IB=_ZN17Terrain_addresses25TerrainColorMapViewer_ptrE
    ?TerrainReflectionTexture_ptr@Terrain_addresses@@3IB=_ZN17Terrain_addresses28TerrainReflectionTexture_ptrE
    ?TerrainReflectionViewer_ptr@Terrain_addresses@@3IB=_ZN17Terrain_addresses27TerrainReflectionViewer_ptrE
    ?TerrainRefractionBlur1RTT_ID_ptr@Terrain_addresses@@3IB=_ZN17Terrain_addresses32TerrainRefractionBlur1RTT_ID_ptrE
    ?TerrainRefractionBlur2RTT_ID_ptr@Terrain_addresses@@3IB=_ZN17Terrain_addresses32TerrainRefractionBlur2RTT_ID_ptrE
    ?TerrainRefractionBuffersRTTTexture_ptr@Terrain_addresses@@3IB=_ZN17Terrain_addresses38TerrainRefractionBuffersRTTTexture_ptrE
    ?TerrainRefractionBuffersRTT_ID_ptr@Terrain_addresses@@3IB=_ZN17Terrain_addresses34TerrainRefractionBuffersRTT_ID_ptrE
    ?TerrainRefractionViewer_ptr@Terrain_addresses@@3IB=_ZN17Terrain_addresses27TerrainRefractionViewer_ptrE
    ?TerrainScatterTexture_ptr@Terrain_addresses@@3IB=_ZN17Terrain_addresses25TerrainScatterTexture_ptrE
    ?TerrainScatterViewer_ptr@Terrain_addresses@@3IB=_ZN17Terrain_addresses24TerrainScatterViewer_ptrE
    ?TerrainSimDataRTTs_ID_ptr@Terrain_addresses@@3IB=_ZN17Terrain_addresses25TerrainSimDataRTTs_ID_ptrE
    ?TerrainSimDataTextures_ptr@Terrain_addresses@@3IB=_ZN17Terrain_addresses26TerrainSimDataTextures_ptrE
    ?ThereIsEventInPlanet@cMissionManager_addresses@Simulator@@3IB=_ZN9Simulator25cMissionManager_addresses20ThereIsEventInPlanetE
    ?Tick@Canvas_addresses@App@@3IB=_ZN3App16Canvas_addresses4TickE
    ?ToDrawable@ButtonDrawableRadio_addresses@UTFWin@@3IB=_ZN6UTFWin29ButtonDrawableRadio_addresses10ToDrawableE
    ?ToDrawable@ButtonDrawableStandard_addresses@UTFWin@@3IB=_ZN6UTFWin32ButtonDrawableStandard_addresses10ToDrawableE
    ?ToDrawable@ComboBoxDrawable_addresses@UTFWin@@3IB=_ZN6UTFWin26ComboBoxDrawable_addresses10ToDrawableE
    ?ToDrawable@DialogDrawable_addresses@UTFWin@@3IB=_ZN6UTFWin24DialogDrawable_addresses10ToDrawableE
    ?ToDrawable@ImageDrawable_addresses@UTFWin@@3IB=_ZN6UTFWin23ImageDrawable_addresses10ToDrawableE
    ?ToDrawable@ScrollbarDrawable_addresses@UTFWin@@3IB=_ZN6UTFWin27ScrollbarDrawable_addresses10ToDrawableE
    ?ToDrawable@SliderDrawable_addresses@UTFWin@@3IB=_ZN6UTFWin24SliderDrawable_addresses10ToDrawableE
    ?ToDrawable@SpinnerDrawable_addresses@UTFWin@@3IB=_ZN6UTFWin25SpinnerDrawable_addresses10ToDrawableE
    ?ToGlobalCoordinates@Window_addresses@UTFWin@@3IB=_ZN6UTFWin16Window_addresses19ToGlobalCoordinatesE
    ?ToLocalCoordinates2@Window_addresses@UTFWin@@3IB=_ZN6UTFWin16Window_addresses19ToLocalCoordinates2E
    ?ToLocalCoordinates@Window_addresses@UTFWin@@3IB=_ZN6UTFWin16Window_addresses18ToLocalCoordinatesE
    ?ToMatrix4@Transform_addresses@@3IB=_ZN19Transform_addresses9ToMatrix4E
    ?ToSurface@cPlanetModel_addresses@Simulator@@3IB=_ZN9Simulator22cPlanetModel_addresses9ToSurfaceE
    ?ToWinProc@BiStateEffect_addresses@UTFWin@@3IB=_ZN6UTFWin23BiStateEffect_addresses9ToWinProcE
    ?ToWinProc@CascadeEffect_addresses@UTFWin@@3IB=_ZN6UTFWin23CascadeEffect_addresses9ToWinProcE
    ?ToWinProc@GlideEffect_addresses@UTFWin@@3IB=_ZN6UTFWin21GlideEffect_addresses9ToWinProcE
    ?ToWinProc@InflateEffect_addresses@UTFWin@@3IB=_ZN6UTFWin23InflateEffect_addresses9ToWinProcE
    ?ToWinProc@ModulateEffect_addresses@UTFWin@@3IB=_ZN6UTFWin24ModulateEffect_addresses9ToWinProcE
    ?ToWinProc@PerspectiveEffect_addresses@UTFWin@@3IB=_ZN6UTFWin27PerspectiveEffect_addresses9ToWinProcE
    ?ToWinProc@RotateEffect_addresses@UTFWin@@3IB=_ZN6UTFWin22RotateEffect_addresses9ToWinProcE
    ?Toggle@cGameTimeManager_addresses@Simulator@@3IB=_ZN9Simulator26cGameTimeManager_addresses6ToggleE
    ?ToggleBackgroundButtonHighlights@PlayModeBackgrounds_addresses@Editors@@3IB=_ZN7Editors29PlayModeBackgrounds_addresses32ToggleBackgroundButtonHighlightsE
    ?Undo@cEditor_addresses@Editors@@3IB=_ZN7Editors17cEditor_addresses4UndoE
    ?UnhookWindows@cAppSystem_addresses@App@@3IB=_ZN3App20cAppSystem_addresses13UnhookWindowsE
    ?UnkUnload1@ItemViewer_addresses@Palettes@@3IB=_ZN8Palettes20ItemViewer_addresses10UnkUnload1E
    ?UnkUnload2@ItemViewer_addresses@Palettes@@3IB=_ZN8Palettes20ItemViewer_addresses10UnkUnload2E
    ?Unload@AdvancedItemViewer_addresses@Palettes@@3IB=_ZN8Palettes28AdvancedItemViewer_addresses6UnloadE
    ?Unload@ItemViewer_addresses@Palettes@@3IB=_ZN8Palettes20ItemViewer_addresses6UnloadE
    ?Unload@PaletteMain_addresses@Palettes@@3IB=_ZN8Palettes21PaletteMain_addresses6UnloadE
    ?Unload@PaletteUI_addresses@Palettes@@3IB=_ZN8Palettes19PaletteUI_addresses6UnloadE
    ?UnlockAndDrawMaterial1Texture@cBufferDraw_addresses@Graphics@@3IB=_ZN8Graphics21cBufferDraw_addresses29UnlockAndDrawMaterial1TextureE
    ?UnlockAndDrawMaterial@cBufferDraw_addresses@Graphics@@3IB=_ZN8Graphics21cBufferDraw_addresses21UnlockAndDrawMaterialE
    ?UnlockAndDrawNoMaterial@cBufferDraw_addresses@Graphics@@3IB=_ZN8Graphics21cBufferDraw_addresses23UnlockAndDrawNoMaterialE
    ?UnlockVertexBuffer@cBufferDraw_addresses@Graphics@@3IB=_ZN8Graphics21cBufferDraw_addresses18UnlockVertexBufferE
    ?Unpause@cAppSystem_addresses@App@@3IB=_ZN3App20cAppSystem_addresses7UnpauseE
    ?Update@AdvancedItemViewer_addresses@Palettes@@3IB=_ZN8Palettes28AdvancedItemViewer_addresses6UpdateE
    ?Update@Canvas_addresses@App@@3IB=_ZN3App16Canvas_addresses6UpdateE
    ?Update@ColorPickerUI_addresses@Palettes@@3IB=_ZN8Palettes23ColorPickerUI_addresses6UpdateE
    ?Update@ColorSwatchUI_addresses@Palettes@@3IB=_ZN8Palettes23ColorSwatchUI_addresses6UpdateE
    ?Update@CreatureWalkController_addresses@Editors@@3IB=_ZN7Editors32CreatureWalkController_addresses6UpdateE
    ?Update@EditorCamera_addresses@Editors@@3IB=_ZN7Editors22EditorCamera_addresses6UpdateE
    ?Update@EditorCreatureController_addresses@Editors@@3IB=_ZN7Editors34EditorCreatureController_addresses6UpdateE
    ?Update@EditorPlayMode_addresses@Editors@@3IB=_ZN7Editors24EditorPlayMode_addresses6UpdateE
    ?Update@PageArrowsUI_addresses@Palettes@@3IB=_ZN8Palettes22PageArrowsUI_addresses6UpdateE
    ?Update@PaletteCategoryUI_addresses@Palettes@@3IB=_ZN8Palettes27PaletteCategoryUI_addresses6UpdateE
    ?Update@PaletteUI_addresses@Palettes@@3IB=_ZN8Palettes19PaletteUI_addresses6UpdateE
    ?Update@cAppSystem_addresses@App@@3IB=_ZN3App20cAppSystem_addresses6UpdateE
    ?Update@cCameraManager_addresses@App@@3IB=_ZN3App24cCameraManager_addresses6UpdateE
    ?Update@cCellModeStrategy_addresses@App@@3IB=_ZN3App27cCellModeStrategy_addresses6UpdateE
    ?Update@cDropCargoToolStrategy_addresses@Simulator@@3IB=_ZN9Simulator32cDropCargoToolStrategy_addresses6UpdateE
    ?Update@cEditor_addresses@Editors@@3IB=_ZN7Editors17cEditor_addresses6UpdateE
    ?Update@cEnergyRepairToolStrategy_addresses@Simulator@@3IB=_ZN9Simulator35cEnergyRepairToolStrategy_addresses6UpdateE
    ?Update@cGetOutOfUFOToolStrategy_addresses@Simulator@@3IB=_ZN9Simulator34cGetOutOfUFOToolStrategy_addresses6UpdateE
    ?Update@cMouseCamera_addresses@App@@3IB=_ZN3App22cMouseCamera_addresses6UpdateE
    ?Update@cPlaceColonyToolStrategy_addresses@Simulator@@3IB=_ZN9Simulator34cPlaceColonyToolStrategy_addresses6UpdateE
    ?Update@cPlaceObjectToolStrategy_addresses@Simulator@@3IB=_ZN9Simulator34cPlaceObjectToolStrategy_addresses6UpdateE
    ?Update@cRepairToolStrategy_addresses@Simulator@@3IB=_ZN9Simulator29cRepairToolStrategy_addresses6UpdateE
    ?Update@cToolStrategy_addresses@Simulator@@3IB=_ZN9Simulator23cToolStrategy_addresses6UpdateE
    ?UpdateBackgroundButtons@PlayModeBackgrounds_addresses@Editors@@3IB=_ZN7Editors29PlayModeBackgrounds_addresses23UpdateBackgroundButtonsE
    ?UpdateFromProjectionMatrix@cFrustumCull_addresses@Graphics@@3IB=_ZN8Graphics22cFrustumCull_addresses26UpdateFromProjectionMatrixE
    ?UpdateIndexBuffer@cTerrainSphereQuad_addresses@Terrain@@3IB=_ZN7Terrain28cTerrainSphereQuad_addresses17UpdateIndexBufferE
    ?UpdateModels@cGameNounManager_addresses@Simulator@@3IB=_ZN9Simulator26cGameNounManager_addresses12UpdateModelsE
    ?UpdatePageNumbers@PlayModeBackgrounds_addresses@Editors@@3IB=_ZN7Editors29PlayModeBackgrounds_addresses17UpdatePageNumbersE
    ?UpdateRecordData2@DatabaseDirectoryFiles_addresses@Resource@@3IB=_ZN8Resource32DatabaseDirectoryFiles_addresses17UpdateRecordData2E
    ?UpdateRecordData@DatabaseDirectoryFiles_addresses@Resource@@3IB=_ZN8Resource32DatabaseDirectoryFiles_addresses16UpdateRecordDataE
    ?UpdateVertexBuffer@cTerrainSphereQuad_addresses@Terrain@@3IB=_ZN7Terrain28cTerrainSphereQuad_addresses18UpdateVertexBufferE
    ?UpdateWithLODMeshes@cModelWorld_addresses@Graphics@@3IB=_ZN8Graphics21cModelWorld_addresses19UpdateWithLODMeshesE
    ?UseCollision@ButtonDrawableRadio_addresses@UTFWin@@3IB=_ZN6UTFWin29ButtonDrawableRadio_addresses12UseCollisionE
    ?UseCollision@ButtonDrawableStandard_addresses@UTFWin@@3IB=_ZN6UTFWin32ButtonDrawableStandard_addresses12UseCollisionE
    ?UseCollision@ComboBoxDrawable_addresses@UTFWin@@3IB=_ZN6UTFWin26ComboBoxDrawable_addresses12UseCollisionE
    ?UseCollision@DialogDrawable_addresses@UTFWin@@3IB=_ZN6UTFWin24DialogDrawable_addresses12UseCollisionE
    ?UseCollision@FrameDrawable_addresses@UTFWin@@3IB=_ZN6UTFWin23FrameDrawable_addresses12UseCollisionE
    ?UseCollision@ImageDrawable_addresses@UTFWin@@3IB=_ZN6UTFWin23ImageDrawable_addresses12UseCollisionE
    ?UseCollision@ScrollbarDrawable_addresses@UTFWin@@3IB=_ZN6UTFWin27ScrollbarDrawable_addresses12UseCollisionE
    ?UseCollision@SliderDrawable_addresses@UTFWin@@3IB=_ZN6UTFWin24SliderDrawable_addresses12UseCollisionE
    ?UseCollision@SpinnerDrawable_addresses@UTFWin@@3IB=_ZN6UTFWin25SpinnerDrawable_addresses12UseCollisionE
    ?UseCollision@SporeStdDrawable_addresses@UTFWin@@3IB=_ZN6UTFWin26SporeStdDrawable_addresses12UseCollisionE
    ?UseCollision@StdDrawable_addresses@UTFWin@@3IB=_ZN6UTFWin21StdDrawable_addresses12UseCollisionE
    ?UseCollision@VariableWidthDrawable_addresses@UTFWin@@3IB=_ZN6UTFWin31VariableWidthDrawable_addresses12UseCollisionE
    ?UseDropCursorIcon@cCursorManager_addresses@UTFWin@@3IB=_ZN6UTFWin24cCursorManager_addresses17UseDropCursorIconE
    ?UseIndexMutex@DatabasePackedFile_addresses@Resource@@3IB=_ZN8Resource28DatabasePackedFile_addresses13UseIndexMutexE
    ?UseMutex@cMessageManager_addresses@App@@3IB=_ZN3App25cMessageManager_addresses8UseMutexE
    ?ValidationEditableTests_ptr@ContentValidation_addresses@Editors@@3IB=_ZN7Editors27ContentValidation_addresses27ValidationEditableTests_ptrE
    ?VerifyHeaderRecordIntegrity@DatabasePackedFile_addresses@Resource@@3IB=_ZN8Resource28DatabasePackedFile_addresses27VerifyHeaderRecordIntegrityE
    ?VerifyIndexRecordIntegrity@DatabasePackedFile_addresses@Resource@@3IB=_ZN8Resource28DatabasePackedFile_addresses26VerifyIndexRecordIntegrityE
    ?VertexShaderDataUniforms_ptr@Graphics_addresses@@3IB=_ZN18Graphics_addresses28VertexShaderDataUniforms_ptrE
    ?VertexShaders_ptr@CompiledShader_addresses@Graphics@@3IB=_ZN8Graphics24CompiledShader_addresses17VertexShaders_ptrE
    ?Wait@cJob_addresses@App@@3IB=_ZN3App14cJob_addresses4WaitE
    ?WalkTo@cCreatureBase_addresses@Simulator@@3IB=_ZN9Simulator23cCreatureBase_addresses6WalkToE
    ?WhileAiming@cDropCargoToolStrategy_addresses@Simulator@@3IB=_ZN9Simulator32cDropCargoToolStrategy_addresses11WhileAimingE
    ?WhileAiming@cGetOutOfUFOToolStrategy_addresses@Simulator@@3IB=_ZN9Simulator34cGetOutOfUFOToolStrategy_addresses11WhileAimingE
    ?WhileAiming@cPlaceColonyToolStrategy_addresses@Simulator@@3IB=_ZN9Simulator34cPlaceColonyToolStrategy_addresses11WhileAimingE
    ?WhileAiming@cPlaceObjectToolStrategy_addresses@Simulator@@3IB=_ZN9Simulator34cPlaceObjectToolStrategy_addresses11WhileAimingE
    ?WhileAiming@cToolStrategy_addresses@Simulator@@3IB=_ZN9Simulator23cToolStrategy_addresses11WhileAimingE
    ?WhileFiring@cArtilleryWeaponStrategy_addresses@Simulator@@3IB=_ZN9Simulator34cArtilleryWeaponStrategy_addresses11WhileFiringE
    ?WhileFiring@cDeepSpaceProjectileToolStrategy_addresses@Simulator@@3IB=_ZN9Simulator42cDeepSpaceProjectileToolStrategy_addresses11WhileFiringE
    ?WhileFiring@cDefaultAoETool_addresses@Simulator@@3IB=_ZN9Simulator25cDefaultAoETool_addresses11WhileFiringE
    ?WhileFiring@cDefaultBeamTool_addresses@Simulator@@3IB=_ZN9Simulator26cDefaultBeamTool_addresses11WhileFiringE
    ?WhileFiring@cDefaultProjectileWeapon_addresses@Simulator@@3IB=_ZN9Simulator34cDefaultProjectileWeapon_addresses11WhileFiringE
    ?WhileFiring@cDragInputProjectileToolStrategy_addresses@Simulator@@3IB=_ZN9Simulator42cDragInputProjectileToolStrategy_addresses11WhileFiringE
    ?WhileFiring@cDropCargoToolStrategy_addresses@Simulator@@3IB=_ZN9Simulator32cDropCargoToolStrategy_addresses11WhileFiringE
    ?WhileFiring@cGlobalMindEraseToolStrategy_addresses@Simulator@@3IB=_ZN9Simulator38cGlobalMindEraseToolStrategy_addresses11WhileFiringE
    ?WhileFiring@cRallyCallToolStrategy_addresses@Simulator@@3IB=_ZN9Simulator32cRallyCallToolStrategy_addresses11WhileFiringE
    ?WhileFiring@cRepairAOEToolStrategy_addresses@Simulator@@3IB=_ZN9Simulator32cRepairAOEToolStrategy_addresses11WhileFiringE
    ?WhileFiring@cRepairToolStrategy_addresses@Simulator@@3IB=_ZN9Simulator29cRepairToolStrategy_addresses11WhileFiringE
    ?WhileFiring@cToolStrategy_addresses@Simulator@@3IB=_ZN9Simulator23cToolStrategy_addresses11WhileFiringE
    ?WhileFiring@cTurretDefenseMissileWeapon_addresses@Simulator@@3IB=_ZN9Simulator37cTurretDefenseMissileWeapon_addresses11WhileFiringE
    ?WhileFiring@cTurretFlakWeapon_addresses@Simulator@@3IB=_ZN9Simulator27cTurretFlakWeapon_addresses11WhileFiringE
    ?Write@ClassSerializer_addresses@Simulator@@3IB=_ZN9Simulator25ClassSerializer_addresses5WriteE
    ?Write@DatabasePackedFile_addresses@Resource@@3IB=_ZN8Resource28DatabasePackedFile_addresses10WriteIndexE
    ?Write@DirectPropertyList_addresses@App@@3IB=_ZN3App28DirectPropertyList_addresses5WriteE
    ?Write@FileStream_addresses@IO@@3IB=_ZN2IO20FileStream_addresses5WriteE
    ?Write@FixedMemoryStream_addresses@IO@@3IB=_ZN2IO27FixedMemoryStream_addresses5WriteE
    ?Write@MemoryStream_addresses@IO@@3IB=_ZN2IO22MemoryStream_addresses5WriteE
    ?Write@PFIndexModifiable_addresses@Resource@@3IB=_ZN8Resource27PFIndexModifiable_addresses5WriteE
    ?Write@PFRecordRead_addresses@Resource@@3IB=_ZN8Resource22PFRecordRead_addresses5WriteE
    ?Write@PFRecordWrite_addresses@Resource@@3IB=_ZN8Resource23PFRecordWrite_addresses5WriteE
    ?Write@PropertyList_addresses@App@@3IB=_ZN3App22PropertyList_addresses5WriteE
    ?Write@StreamBuffer_addresses@IO@@3IB=_ZN2IO22StreamBuffer_addresses5WriteE
    ?Write@StreamChild_addresses@IO@@3IB=_ZN2IO21StreamChild_addresses5WriteE
    ?Write@StreamNull_addresses@IO@@3IB=_ZN2IO20StreamNull_addresses5WriteE
    ?Write@cCelestialBody_addresses@Simulator@@3IB=_ZN9Simulator24cCelestialBody_addresses10WriteToXMLE
    ?Write@cCreatureDataResource_addresses@Editors@@3IB=_ZN7Editors31cCreatureDataResource_addresses5WriteE
    ?Write@cGameData_addresses@Simulator@@3IB=_ZN9Simulator19cGameData_addresses10WriteToXMLE
    ?Write@cPropManager_addresses@App@@3IB=_ZN3App22cPropManager_addresses13WriteResourceE
    ?Write@cScenarioResource_addresses@Simulator@@3IB=_ZN9Simulator27cScenarioResource_addresses5WriteE
    ?WriteAsText@cGameData_addresses@Simulator@@3IB=_ZN9Simulator19cGameData_addresses11WriteAsTextE
    ?WriteCDATA@XmlWriter_addresses@IO@@3IB=_ZN2IO19XmlWriter_addresses10WriteCDATAE
    ?WriteCharData@XmlWriter_addresses@IO@@3IB=_ZN2IO19XmlWriter_addresses13WriteCharDataE
    ?WriteComment@XmlWriter_addresses@IO@@3IB=_ZN2IO19XmlWriter_addresses12WriteCommentE
    ?WriteEmptyHeaderRecord@DatabasePackedFile_addresses@Resource@@3IB=_ZN8Resource28DatabasePackedFile_addresses22WriteEmptyHeaderRecordE
    ?WriteFloat@IO_addresses@@3IB=_ZN12IO_addresses10WriteFloatE
    ?WriteHeaderRecord@DatabasePackedFile_addresses@Resource@@3IB=_ZN8Resource28DatabasePackedFile_addresses17WriteHeaderRecordE
    ?WriteIndex@DatabasePackedFile_addresses@Resource@@3IB=_ZN8Resource28DatabasePackedFile_addresses10WriteIndexE
    ?WriteIndexRecord@DatabasePackedFile_addresses@Resource@@3IB=_ZN8Resource28DatabasePackedFile_addresses16WriteIndexRecordE
    ?WriteInt16@IO_addresses@@3IB=_ZN12IO_addresses10WriteInt16E
    ?WriteInt32@IO_addresses@@3IB=_ZN12IO_addresses10WriteInt32E
    ?WriteInt8@IO_addresses@@3IB=_ZN12IO_addresses9WriteInt8E
    ?WriteLine@IO_addresses@@3IB=_ZN12IO_addresses9WriteLineE
    ?WriteName@XmlWriter_addresses@IO@@3IB=_ZN2IO19XmlWriter_addresses9WriteNameE
    ?WriteResource@cPropManager_addresses@App@@3IB=_ZN3App22cPropManager_addresses13WriteResourceE
    ?WriteResource@cResourceManager_addresses@Resource@@3IB=_ZN8Resource26cResourceManager_addresses13WriteResourceE
    ?WriteResourceID@IO_addresses@@3IB=_ZN12IO_addresses15WriteResourceIDE
    ?WriteText@XmlWriter_addresses@IO@@3IB=_ZN2IO19XmlWriter_addresses9WriteTextE
    ?WriteToXML@cCelestialBody_addresses@Simulator@@3IB=_ZN9Simulator24cCelestialBody_addresses10WriteToXMLE
    ?WriteToXML@cGameData_addresses@Simulator@@3IB=_ZN9Simulator19cGameData_addresses10WriteToXMLE
    ?WriteUInt16@IO_addresses@@3IB=_ZN12IO_addresses11WriteUInt16E
    ?WriteUInt32@IO_addresses@@3IB=_ZN12IO_addresses11WriteUInt32E
    ?WriteUInt8@IO_addresses@@3IB=_ZN12IO_addresses10WriteUInt8E
    ?WriteXmlHeader@XmlWriter_addresses@IO@@3IB=_ZN2IO19XmlWriter_addresses14WriteXmlHeaderE
    ?_dtor@cObjectPool__addresses@Simulator@@3IB=_ZN9Simulator22cObjectPool__addresses5_dtorE
    ?_ptr@cCellGFX_addresses@Cell@Simulator@@3IB=_ZN9Simulator4Cell18cCellGFX_addresses4_ptrE
    ?_ptr@cCellGame_addresses@Cell@Simulator@@3IB=_ZN9Simulator4Cell19cCellGame_addresses4_ptrE
    ?_ptr@cCellSerializableData_addresses@Cell@Simulator@@3IB=_ZN9Simulator4Cell31cCellSerializableData_addresses4_ptrE
    ?_ptr@cCellUI_addresses@Cell@Simulator@@3IB=_ZN9Simulator4Cell17cCellUI_addresses4_ptrE
    ?_ptr@cSimulatorUniverse_addresses@Simulator@@3IB=_ZN9Simulator28cSimulatorUniverse_addresses4_ptrE
    ?assign@Transform_addresses@@3IB=_ZN19Transform_addresses6assignE
    ?baseAddress@@3IA=baseAddress
    ?cGameData_func3Ch@cGameData_addresses@Simulator@@3IB=_ZN9Simulator19cGameData_addresses17cGameData_func3ChE
    ?color_ptr@GlobalState_addresses@Graphics@@3IB=_ZN8Graphics21GlobalState_addresses9color_ptrE
    ?ctor@ShaderBuilder_addresses@Graphics@@3IB=_ZN8Graphics23ShaderBuilder_addresses4ctorE
    ?ctor@StandardShader_addresses@Graphics@@3IB=_ZN8Graphics24StandardShader_addresses4ctorE
    ?ctor@cSPUITextZoom_addresses@UI@@3IB=_ZN2UI23cSPUITextZoom_addresses4ctorE
    ?ctor_0@LocalizedString_addresses@@3IB=_ZN25LocalizedString_addresses6ctor_0E
    ?ctor_1@LocalizedString_addresses@@3IB=_ZN25LocalizedString_addresses6ctor_1E
    ?delete_@EAIOZoneObject_addresses@IO@@3IB=_ZN2IO24EAIOZoneObject_addresses7delete_E
    ?delete_@Internal_addresses@@3IB=_ZN18Internal_addresses7delete_E
    ?delete_@UTFWinObject_addresses@UTFWin@@3IB=_ZN6UTFWin22UTFWinObject_addresses7delete_E
    ?dtor@FixedPoolAllocator_addresses@@3IB=_ZN28FixedPoolAllocator_addresses4dtorE
    ?dtor@LocalizedString_addresses@@3IB=_ZN25LocalizedString_addresses4dtorE
    ?func04h@PFIndexModifiable_addresses@Resource@@3IB=_ZN8Resource27PFIndexModifiable_addresses7func04hE
    ?func08h@cPropManager_addresses@App@@3IB=_ZN3App22cPropManager_addresses7func08hE
    ?func0Ch@Canvas_addresses@App@@3IB=_ZN3App16Canvas_addresses7func0ChE
    ?func0Ch@cCellModeStrategy_addresses@App@@3IB=_ZN3App27cCellModeStrategy_addresses7func0ChE
    ?func10h@Canvas_addresses@App@@3IB=_ZN3App16Canvas_addresses7func10hE
    ?func10h@cResourceManager_addresses@Resource@@3IB=_ZN8Resource26cResourceManager_addresses7func10hE
    ?func14h@cCheatManager_addresses@App@@3IB=_ZN3App23cCheatManager_addresses7func14hE
    ?func14h@cGameModeManager_addresses@App@@3IB=_ZN3App26cGameModeManager_addresses7func14hE
    ?func17@Window_addresses@UTFWin@@3IB=_ZN6UTFWin16Window_addresses6func17E
    ?func18@Window_addresses@UTFWin@@3IB=_ZN6UTFWin16Window_addresses6func18E
    ?func18h@TreeNode_addresses@UTFWin@@3IB=_ZN6UTFWin18TreeNode_addresses7func18hE
    ?func18h@cGameData_addresses@Simulator@@3IB=_ZN9Simulator19cGameData_addresses7func18hE
    ?func18h@cMessageManager_addresses@App@@3IB=_ZN3App25cMessageManager_addresses7func18hE
    ?func18h@cResourceManager_addresses@Resource@@3IB=_ZN8Resource26cResourceManager_addresses7func18hE
    ?func19@Window_addresses@UTFWin@@3IB=_ZN6UTFWin16Window_addresses6func19E
    ?func1Ch@TreeNode_addresses@UTFWin@@3IB=_ZN6UTFWin18TreeNode_addresses7func1ChE
    ?func1Ch@cMessageManager_addresses@App@@3IB=_ZN3App25cMessageManager_addresses7func1ChE
    ?func20h@TreeNode_addresses@UTFWin@@3IB=_ZN6UTFWin18TreeNode_addresses7func20hE
    ?func20h@cCellModeStrategy_addresses@App@@3IB=_ZN3App27cCellModeStrategy_addresses7func20hE
    ?func20h@cPropManager_addresses@App@@3IB=_ZN3App22cPropManager_addresses7func20hE
    ?func24h@EditorCamera_addresses@Editors@@3IB=_ZN7Editors22EditorCamera_addresses7func24hE
    ?func24h@PFIndexModifiable_addresses@Resource@@3IB=_ZN8Resource27PFIndexModifiable_addresses7func24hE
    ?func24h@TreeNode_addresses@UTFWin@@3IB=_ZN6UTFWin18TreeNode_addresses7func24hE
    ?func24h@cCheatManager_addresses@App@@3IB=_ZN3App23cCheatManager_addresses7func24hE
    ?func28h@PFRecordRead_addresses@Resource@@3IB=_ZN8Resource22PFRecordRead_addresses7func28hE
    ?func28h@PFRecordWrite_addresses@Resource@@3IB=_ZN8Resource23PFRecordWrite_addresses7func28hE
    ?func28h@TreeNode_addresses@UTFWin@@3IB=_ZN6UTFWin18TreeNode_addresses7func28hE
    ?func2Ch@TreeNode_addresses@UTFWin@@3IB=_ZN6UTFWin18TreeNode_addresses7func2ChE
    ?func30@Window_addresses@UTFWin@@3IB=_ZN6UTFWin16Window_addresses6func30E
    ?func30h@FormatParser_addresses@ArgScript@@3IB=_ZN9ArgScript22FormatParser_addresses7func30hE
    ?func30h@TreeNode_addresses@UTFWin@@3IB=_ZN6UTFWin18TreeNode_addresses7func30hE
    ?func30h@cCheatManager_addresses@App@@3IB=_ZN3App23cCheatManager_addresses7func30hE
    ?func34@Window_addresses@UTFWin@@3IB=_ZN6UTFWin16Window_addresses6func34E
    ?func34h@TreeNode_addresses@UTFWin@@3IB=_ZN6UTFWin18TreeNode_addresses7func34hE
    ?func34h@cCheatManager_addresses@App@@3IB=_ZN3App23cCheatManager_addresses7func34hE
    ?func34h@cMessageManager_addresses@App@@3IB=_ZN3App25cMessageManager_addresses7func34hE
    ?func34h@cResourceManager_addresses@Resource@@3IB=_ZN8Resource26cResourceManager_addresses7func34hE
    ?func35@Window_addresses@UTFWin@@3IB=_ZN6UTFWin16Window_addresses6func35E
    ?func38h@DatabasePackedFile_addresses@Resource@@3IB=_ZN8Resource28DatabasePackedFile_addresses7func38hE
    ?func38h@cMessageManager_addresses@App@@3IB=_ZN3App25cMessageManager_addresses7func38hE
    ?func38h@cPropManager_addresses@App@@3IB=_ZN3App22cPropManager_addresses7func38hE
    ?func38h@cSPAssetDataOTDB_addresses@Sporepedia@@3IB=_ZN10Sporepedia26cSPAssetDataOTDB_addresses7func38hE
    ?func39@Window_addresses@UTFWin@@3IB=_ZN6UTFWin16Window_addresses6func39E
    ?func3Ch@DatabasePackedFile_addresses@Resource@@3IB=_ZN8Resource28DatabasePackedFile_addresses7func3ChE
    ?func3Ch@cCheatManager_addresses@App@@3IB=_ZN3App23cCheatManager_addresses7func3ChE
    ?func3Ch@cGameData_addresses@Simulator@@3IB=_ZN9Simulator19cGameData_addresses7func3ChE
    ?func3Ch@cMessageManager_addresses@App@@3IB=_ZN3App25cMessageManager_addresses7func3ChE
    ?func3Ch@cPropManager_addresses@App@@3IB=_ZN3App22cPropManager_addresses7func3ChE
    ?func3Ch@cResourceManager_addresses@Resource@@3IB=_ZN8Resource26cResourceManager_addresses7func3ChE
    ?func3Ch@cSPAssetDataOTDB_addresses@Sporepedia@@3IB=_ZN10Sporepedia26cSPAssetDataOTDB_addresses7func3ChE
    ?func40@Window_addresses@UTFWin@@3IB=_ZN6UTFWin16Window_addresses6func40E
    ?func40h@AdvancedItemViewer_addresses@Palettes@@3IB=_ZN8Palettes28AdvancedItemViewer_addresses7func40hE
    ?func40h@EditorCamera_addresses@Editors@@3IB=_ZN7Editors22EditorCamera_addresses7func40hE
    ?func40h@cCheatManager_addresses@App@@3IB=_ZN3App23cCheatManager_addresses7func40hE
    ?func40h@cPropManager_addresses@App@@3IB=_ZN3App22cPropManager_addresses7func40hE
    ?func40h@cResourceManager_addresses@Resource@@3IB=_ZN8Resource26cResourceManager_addresses7func40hE
    ?func40h@cToolStrategy_addresses@Simulator@@3IB=_ZN9Simulator23cToolStrategy_addresses7func40hE
    ?func44h@AdvancedItemViewer_addresses@Palettes@@3IB=_ZN8Palettes28AdvancedItemViewer_addresses7func44hE
    ?func44h@EditorCamera_addresses@Editors@@3IB=_ZN7Editors22EditorCamera_addresses7func44hE
    ?func44h@cCheatManager_addresses@App@@3IB=_ZN3App23cCheatManager_addresses7func44hE
    ?func44h@cPropManager_addresses@App@@3IB=_ZN3App22cPropManager_addresses7func44hE
    ?func45@Window_addresses@UTFWin@@3IB=_ZN6UTFWin16Window_addresses6func45E
    ?func46@Window_addresses@UTFWin@@3IB=_ZN6UTFWin16Window_addresses6func46E
    ?func47@Window_addresses@UTFWin@@3IB=_ZN6UTFWin16Window_addresses6func47E
    ?func48@Window_addresses@UTFWin@@3IB=_ZN6UTFWin16Window_addresses6func48E
    ?func48h@AdvancedItemViewer_addresses@Palettes@@3IB=_ZN8Palettes28AdvancedItemViewer_addresses7func48hE
    ?func48h@EditorCamera_addresses@Editors@@3IB=_ZN7Editors22EditorCamera_addresses7func48hE
    ?func48h@cCheatManager_addresses@App@@3IB=_ZN3App23cCheatManager_addresses7func48hE
    ?func48h@cDefaultAoETool_addresses@Simulator@@3IB=_ZN9Simulator25cDefaultAoETool_addresses7func48hE
    ?func48h@cDefaultBeamTool_addresses@Simulator@@3IB=_ZN9Simulator26cDefaultBeamTool_addresses7func48hE
    ?func48h@cGameModeManager_addresses@App@@3IB=_ZN3App26cGameModeManager_addresses7func48hE
    ?func48h@cSPAssetDataOTDB_addresses@Sporepedia@@3IB=_ZN10Sporepedia26cSPAssetDataOTDB_addresses7func48hE
    ?func49@Window_addresses@UTFWin@@3IB=_ZN6UTFWin16Window_addresses6func49E
    ?func4Ch@AdvancedItemViewer_addresses@Palettes@@3IB=_ZN8Palettes28AdvancedItemViewer_addresses7func4ChE
    ?func4Ch@cCheatManager_addresses@App@@3IB=_ZN3App23cCheatManager_addresses7func4ChE
    ?func4Ch@cDefaultAoETool_addresses@Simulator@@3IB=_ZN9Simulator25cDefaultAoETool_addresses7func4ChE
    ?func4Ch@cDefaultBeamTool_addresses@Simulator@@3IB=_ZN9Simulator26cDefaultBeamTool_addresses7func4ChE
    ?func4Ch@cPropManager_addresses@App@@3IB=_ZN3App22cPropManager_addresses7func4ChE
    ?func4Ch@cSPAssetDataOTDB_addresses@Sporepedia@@3IB=_ZN10Sporepedia26cSPAssetDataOTDB_addresses7func4ChE
    ?func50@Window_addresses@UTFWin@@3IB=_ZN6UTFWin16Window_addresses6func50E
    ?func50h@AdvancedItemViewer_addresses@Palettes@@3IB=_ZN8Palettes28AdvancedItemViewer_addresses7func50hE
    ?func54h@AdvancedItemViewer_addresses@Palettes@@3IB=_ZN8Palettes28AdvancedItemViewer_addresses7func54hE
    ?func54h@EditorCamera_addresses@Editors@@3IB=_ZN7Editors22EditorCamera_addresses7func54hE
    ?func54h@cMouseCamera_addresses@App@@3IB=_ZN3App22cMouseCamera_addresses7func54hE
    ?func58h@AdvancedItemViewer_addresses@Palettes@@3IB=_ZN8Palettes28AdvancedItemViewer_addresses7func58hE
    ?func58h@FormatParser_addresses@ArgScript@@3IB=_ZN9ArgScript22FormatParser_addresses7func58hE
    ?func5Ch@FormatParser_addresses@ArgScript@@3IB=_ZN9ArgScript22FormatParser_addresses7func5ChE
    ?func60h@FormatParser_addresses@ArgScript@@3IB=_ZN9ArgScript22FormatParser_addresses7func60hE
    ?func60h@cAppSystem_addresses@App@@3IB=_ZN3App20cAppSystem_addresses7func60hE
    ?func60h@cResourceManager_addresses@Resource@@3IB=_ZN8Resource26cResourceManager_addresses7func60hE
    ?func63@Window_addresses@UTFWin@@3IB=_ZN6UTFWin16Window_addresses6func63E
    ?func64@Window_addresses@UTFWin@@3IB=_ZN6UTFWin16Window_addresses6func64E
    ?func64h@AdvancedItemViewer_addresses@Palettes@@3IB=_ZN8Palettes28AdvancedItemViewer_addresses7func64hE
    ?func64h@cAppSystem_addresses@App@@3IB=_ZN3App20cAppSystem_addresses7func64hE
    ?func64h@cResourceManager_addresses@Resource@@3IB=_ZN8Resource26cResourceManager_addresses7func64hE
    ?func64h@cSPAssetDataOTDB_addresses@Sporepedia@@3IB=_ZN10Sporepedia26cSPAssetDataOTDB_addresses7func64hE
    ?func68@Window_addresses@UTFWin@@3IB=_ZN6UTFWin16Window_addresses6func68E
    ?func68h@cAppSystem_addresses@App@@3IB=_ZN3App20cAppSystem_addresses7func68hE
    ?func6@Window_addresses@UTFWin@@3IB=_ZN6UTFWin16Window_addresses5func6E
    ?func6Ch@AdvancedItemViewer_addresses@Palettes@@3IB=_ZN8Palettes28AdvancedItemViewer_addresses7func6ChE
    ?func6Ch@Canvas_addresses@App@@3IB=_ZN3App16Canvas_addresses7func6ChE
    ?func6Ch@cResourceManager_addresses@Resource@@3IB=_ZN8Resource26cResourceManager_addresses7func6ChE
    ?func70h@AdvancedItemViewer_addresses@Palettes@@3IB=_ZN8Palettes28AdvancedItemViewer_addresses7func70hE
    ?func70h@Canvas_addresses@App@@3IB=_ZN3App16Canvas_addresses7func70hE
    ?func70h@cResourceManager_addresses@Resource@@3IB=_ZN8Resource26cResourceManager_addresses7func70hE
    ?func74h@AdvancedItemViewer_addresses@Palettes@@3IB=_ZN8Palettes28AdvancedItemViewer_addresses7func74hE
    ?func78h@AdvancedItemViewer_addresses@Palettes@@3IB=_ZN8Palettes28AdvancedItemViewer_addresses7func78hE
    ?func78h@FormatParser_addresses@ArgScript@@3IB=_ZN9ArgScript22FormatParser_addresses7func78hE
    ?func7Ch@Canvas_addresses@App@@3IB=_ZN3App16Canvas_addresses7func7ChE
    ?func7Ch@cAppSystem_addresses@App@@3IB=_ZN3App20cAppSystem_addresses7func7ChE
    ?func7Ch@cSPAssetDataOTDB_addresses@Sporepedia@@3IB=_ZN10Sporepedia26cSPAssetDataOTDB_addresses7func7ChE
    ?func80h@Canvas_addresses@App@@3IB=_ZN3App16Canvas_addresses7func80hE
    ?func80h@GlideEffect_addresses@UTFWin@@3IB=_ZN6UTFWin21GlideEffect_addresses7func80hE
    ?func80h@InflateEffect_addresses@UTFWin@@3IB=_ZN6UTFWin23InflateEffect_addresses7func80hE
    ?func80h@PerspectiveEffect_addresses@UTFWin@@3IB=_ZN6UTFWin27PerspectiveEffect_addresses7func80hE
    ?func80h@RotateEffect_addresses@UTFWin@@3IB=_ZN6UTFWin22RotateEffect_addresses7func80hE
    ?func80h@cSPAssetDataOTDB_addresses@Sporepedia@@3IB=_ZN10Sporepedia26cSPAssetDataOTDB_addresses7func80hE
    ?func84h@FadeEffect_addresses@UTFWin@@3IB=_ZN6UTFWin20FadeEffect_addresses7func84hE
    ?func84h@ModulateEffect_addresses@UTFWin@@3IB=_ZN6UTFWin24ModulateEffect_addresses7func84hE
    ?func84h@cAppSystem_addresses@App@@3IB=_ZN3App20cAppSystem_addresses7func84hE
    ?func88h@Canvas_addresses@App@@3IB=_ZN3App16Canvas_addresses7func88hE
    ?func88h@GlideEffect_addresses@UTFWin@@3IB=_ZN6UTFWin21GlideEffect_addresses7func88hE
    ?func88h@InflateEffect_addresses@UTFWin@@3IB=_ZN6UTFWin23InflateEffect_addresses7func88hE
    ?func88h@RotateEffect_addresses@UTFWin@@3IB=_ZN6UTFWin22RotateEffect_addresses7func88hE
    ?func88h@cAppSystem_addresses@App@@3IB=_ZN3App20cAppSystem_addresses7func88hE
    ?func8Ch@Canvas_addresses@App@@3IB=_ZN3App16Canvas_addresses7func8ChE
    ?func90h@Canvas_addresses@App@@3IB=_ZN3App16Canvas_addresses7func90hE
    ?func90h@DatabasePackedFile_addresses@Resource@@3IB=_ZN8Resource28DatabasePackedFile_addresses7func90hE
    ?func9@Window_addresses@UTFWin@@3IB=_ZN6UTFWin16Window_addresses5func9E
    ?func9Ch@cSPAssetDataOTDB_addresses@Sporepedia@@3IB=_ZN10Sporepedia26cSPAssetDataOTDB_addresses7func9ChE
    ?funcA8h@cSPAssetDataOTDB_addresses@Sporepedia@@3IB=_ZN10Sporepedia26cSPAssetDataOTDB_addresses7funcA8hE
    ?funcC0h@FormatParser_addresses@ArgScript@@3IB=_ZN9ArgScript22FormatParser_addresses7funcC0hE
    ?funcC8h@FormatParser_addresses@ArgScript@@3IB=_ZN9ArgScript22FormatParser_addresses7funcC8hE
    ?new_@EAIOZoneObject_addresses@IO@@3IB=_ZN2IO24EAIOZoneObject_addresses4new_E
    ?new_@Internal_addresses@@3IB=_ZN18Internal_addresses4new_E
    ?new_@UTFWinObject_addresses@UTFWin@@3IB=_ZN6UTFWin22UTFWinObject_addresses4new_E
    ?op_equal@LocalizedString_addresses@@3IB=_ZN25LocalizedString_addresses8op_equalE
    ?ptr@GlobalGGEUI_addresses@GalaxyGameEntry@@3IB=_ZN15GalaxyGameEntry21GlobalGGEUI_addresses3ptrE
    ?ptr@ScenarioMode_addresses@App@@3IB=_ZN3App22ScenarioMode_addresses3ptrE
    ?ptr@SpacePlayerData_addresses@Simulator@@3IB=_ZN9Simulator25SpacePlayerData_addresses3ptrE
    ?ptr@cBufferDraw_addresses@Graphics@@3IB=_ZN8Graphics21cBufferDraw_addresses3ptrE
    ?ptr@cEditor_addresses@Editors@@3IB=_ZN7Editors17cEditor_addresses3ptrE
    ?ptr@cScenarioEditHistory_addresses@Simulator@@3IB=_ZN9Simulator30cScenarioEditHistory_addresses3ptrE
    ?ptr@cScenarioMode_addresses@App@@3IB=_ZN3App23cScenarioMode_addresses3ptrE
    ?renderStateDirty_ptr@GlobalState_addresses@Graphics@@3IB=_ZN8Graphics21GlobalState_addresses20renderStateDirty_ptrE
    ?renderStates_ptr@GlobalState_addresses@Graphics@@3IB=_ZN8Graphics21GlobalState_addresses16renderStates_ptrE
    ?sAppCommandLine@App_addresses@@3IB=_ZN13App_addresses15sAppCommandLineE
    ?sCreatureGameUnlockCategoriesCount@Simulator_addresses@@3IB=_ZN19Simulator_addresses34sCreatureGameUnlockCategoriesCountE
    ?sFrustumCull_ptr@cCellGFX_addresses@Cell@Simulator@@3IB=_ZN9Simulator4Cell18cCellGFX_addresses16sFrustumCull_ptrE
    ?sPreferencesPropList@App_addresses@@3IB=_ZN13App_addresses20sPreferencesPropListE
    ?sPresentParams@ActiveState_addresses@Graphics@@3IB=_ZN8Graphics21ActiveState_addresses14sPresentParamsE
    ?sRasterDelta@ActiveState_addresses@Graphics@@3IB=_ZN8Graphics21ActiveState_addresses12sRasterDeltaE
    ?sSerializer__backgroundMap@Cell_addresses@Simulator@@3IB=_ZN9Simulator14Cell_addresses26sSerializer__backgroundMapE
    ?sSerializer__cell@Cell_addresses@Simulator@@3IB=_ZN9Simulator14Cell_addresses17sSerializer__cellE
    ?sSerializer__effectMap@Cell_addresses@Simulator@@3IB=_ZN9Simulator14Cell_addresses22sSerializer__effectMapE
    ?sSerializer__globals@Cell_addresses@Simulator@@3IB=_ZN9Simulator14Cell_addresses20sSerializer__globalsE
    ?sSerializer__look_algorithm@Cell_addresses@Simulator@@3IB=_ZN9Simulator14Cell_addresses27sSerializer__look_algorithmE
    ?sSerializer__look_table@Cell_addresses@Simulator@@3IB=_ZN9Simulator14Cell_addresses23sSerializer__look_tableE
    ?sSerializer__lootTable@Cell_addresses@Simulator@@3IB=_ZN9Simulator14Cell_addresses22sSerializer__lootTableE
    ?sSerializer__populate@Cell_addresses@Simulator@@3IB=_ZN9Simulator14Cell_addresses21sSerializer__populateE
    ?sSerializer__powers@Cell_addresses@Simulator@@3IB=_ZN9Simulator14Cell_addresses19sSerializer__powersE
    ?sSerializer__random_creature@Cell_addresses@Simulator@@3IB=_ZN9Simulator14Cell_addresses28sSerializer__random_creatureE
    ?sSerializer__structure@Cell_addresses@Simulator@@3IB=_ZN9Simulator14Cell_addresses22sSerializer__structureE
    ?sSerializer__world@Cell_addresses@Simulator@@3IB=_ZN9Simulator14Cell_addresses18sSerializer__worldE
    ?sShader@ActiveState_addresses@Graphics@@3IB=_ZN8Graphics21ActiveState_addresses11sShaderDataE
    ?sShaderData@ActiveState_addresses@Graphics@@3IB=_ZN8Graphics21ActiveState_addresses11sShaderDataE
    ?sTransform@ActiveState_addresses@Graphics@@3IB=_ZN8Graphics21ActiveState_addresses10sTransformE
    ?sTransposedTransform@ActiveState_addresses@Graphics@@3IB=_ZN8Graphics21ActiveState_addresses20sTransposedTransformE
    ?sVisibleBackgroundBBox_ptr@cCellGFX_addresses@Cell@Simulator@@3IB=_ZN9Simulator4Cell18cCellGFX_addresses26sVisibleBackgroundBBox_ptrE
    ?softStateDirty_ptr@GlobalState_addresses@Graphics@@3IB=_ZN8Graphics21GlobalState_addresses18softStateDirty_ptrE
    ?sub_581F70@cEditor_addresses@Editors@@3IB=_ZN7Editors17cEditor_addresses10sub_581F70E
    ?sub_597390@cCollectableItems_addresses@Simulator@@3IB=_ZN9Simulator27cCollectableItems_addresses10sub_597390E
    ?sub_597BC0@cCollectableItems_addresses@Simulator@@3IB=_ZN9Simulator27cCollectableItems_addresses10sub_597BC0E
    ?sub_628CC0@EditorPlayMode_addresses@Editors@@3IB=_ZN7Editors24EditorPlayMode_addresses10sub_628CC0E
    ?sub_C32EA0@cEmpire_addresses@Simulator@@3IB=_ZN9Simulator17cEmpire_addresses10sub_C32EA0E
    ?sub_D3B460@CreatureGamePartUnlocking_addresses@Simulator@@3IB=_ZN9Simulator35CreatureGamePartUnlocking_addresses10sub_D3B460E
    ?transformType_ptr@GlobalState_addresses@Graphics@@3IB=_ZN8Graphics21GlobalState_addresses17transformType_ptrE
    ?transform_ptr@GlobalState_addresses@Graphics@@3IB=_ZN8Graphics21GlobalState_addresses13transform_ptrE
